         name @rpath/libwebrtc-audio-processing-2.1.dylib (offset 24)
compatibility version 1.0.0
_WebRtcAecm_BufferFarend T
_WebRtcAecm_Create T
_WebRtcAecm_Free T
_WebRtcAecm_GetBufferFarendError T
_WebRtcAecm_GetEchoPath T
_WebRtcAecm_Init T
_WebRtcAecm_InitEchoPath T
_WebRtcAecm_Process T
_WebRtcAecm_echo_path_size_bytes T
_WebRtcAecm_set_config T
_WebRtcIsac_AllPassFilter2Float T
_WebRtcIsac_AutoCorr T
_WebRtcIsac_InitPitchAnalysis T
_WebRtcIsac_InitPitchFilter T
_WebRtcIsac_InitPreFilterbank T
_WebRtcIsac_LevDurb T
_WebRtcIsac_PitchAnalysis T
_WebRtcIsac_PitchfilterPost T
_WebRtcIsac_PitchfilterPre T
_WebRtcIsac_PitchfilterPre_gains T
_WebRtcIsac_PitchfilterPre_la T
_WebRtcIsac_SplitAndFilterFloat T
_WebRtcIsac_WeightingFilter T
_WebRtcIsac_kLowerApFactorsFloat S
_WebRtcIsac_kUpperApFactorsFloat S
_WebRtcSpl_32khzTo22khzIntToInt T
_WebRtcSpl_AnalysisQMF T
_WebRtcSpl_ComplexBitReverse T
_WebRtcSpl_ComplexFFT T
_WebRtcSpl_ComplexIFFT T
_WebRtcSpl_CopyFromEndW16 T
_WebRtcSpl_CreateRealFFT T
_WebRtcSpl_CrossCorrelation S
_WebRtcSpl_CrossCorrelationC T
_WebRtcSpl_DivResultInQ31 T
_WebRtcSpl_DivU32U16 T
_WebRtcSpl_DivW32HiLow T
_WebRtcSpl_DivW32W16 T
_WebRtcSpl_DivW32W16ResW16 T
_WebRtcSpl_DotProductWithScale T
_WebRtcSpl_DownBy2IntToShort T
_WebRtcSpl_DownBy2ShortToInt T
_WebRtcSpl_DownsampleBy2 T
_WebRtcSpl_DownsampleFast S
_WebRtcSpl_DownsampleFastC T
_WebRtcSpl_Energy T
_WebRtcSpl_FreeRealFFT T
_WebRtcSpl_GetScalingSquare T
_WebRtcSpl_LPBy2IntToInt T
_WebRtcSpl_LPBy2ShortToInt T
_WebRtcSpl_MaxAbsElementW16 T
_WebRtcSpl_MaxAbsIndexW16 T
_WebRtcSpl_MaxAbsValueW16 S
_WebRtcSpl_MaxAbsValueW16C T
_WebRtcSpl_MaxAbsValueW32 S
_WebRtcSpl_MaxAbsValueW32C T
_WebRtcSpl_MaxIndexW16 T
_WebRtcSpl_MaxIndexW32 T
_WebRtcSpl_MaxValueW16 S
_WebRtcSpl_MaxValueW16C T
_WebRtcSpl_MaxValueW32 S
_WebRtcSpl_MaxValueW32C T
_WebRtcSpl_MemCpyReversedOrder T
_WebRtcSpl_MemSetW16 T
_WebRtcSpl_MemSetW32 T
_WebRtcSpl_MinIndexW16 T
_WebRtcSpl_MinIndexW32 T
_WebRtcSpl_MinMaxW16 T
_WebRtcSpl_MinValueW16 S
_WebRtcSpl_MinValueW16C T
_WebRtcSpl_MinValueW32 S
_WebRtcSpl_MinValueW32C T
_WebRtcSpl_RandN T
_WebRtcSpl_RandU T
_WebRtcSpl_RandUArray T
_WebRtcSpl_RealForwardFFT T
_WebRtcSpl_RealInverseFFT T
_WebRtcSpl_Resample16khzTo22khz T
_WebRtcSpl_Resample16khzTo48khz T
_WebRtcSpl_Resample22khzTo16khz T
_WebRtcSpl_Resample22khzTo8khz T
_WebRtcSpl_Resample32khzTo24khz T
_WebRtcSpl_Resample44khzTo32khz T
_WebRtcSpl_Resample48khzTo16khz T
_WebRtcSpl_Resample48khzTo32khz T
_WebRtcSpl_Resample48khzTo8khz T
_WebRtcSpl_Resample8khzTo22khz T
_WebRtcSpl_Resample8khzTo48khz T
_WebRtcSpl_ResetResample16khzTo22khz T
_WebRtcSpl_ResetResample16khzTo48khz T
_WebRtcSpl_ResetResample22khzTo16khz T
_WebRtcSpl_ResetResample22khzTo8khz T
_WebRtcSpl_ResetResample48khzTo16khz T
_WebRtcSpl_ResetResample48khzTo8khz T
_WebRtcSpl_ResetResample8khzTo22khz T
_WebRtcSpl_ResetResample8khzTo48khz T
_WebRtcSpl_ScaleAndAddVectors T
_WebRtcSpl_ScaleAndAddVectorsWithRound S
_WebRtcSpl_ScaleAndAddVectorsWithRoundC T
_WebRtcSpl_ScaleVector T
_WebRtcSpl_ScaleVectorWithSat T
_WebRtcSpl_Sqrt T
_WebRtcSpl_SqrtFloor T
_WebRtcSpl_SqrtLocal T
_WebRtcSpl_SynthesisQMF T
_WebRtcSpl_UpBy2IntToInt T
_WebRtcSpl_UpBy2IntToShort T
_WebRtcSpl_UpBy2ShortToInt T
_WebRtcSpl_UpsampleBy2 T
_WebRtcSpl_VectorBitShiftW16 T
_WebRtcSpl_VectorBitShiftW32 T
_WebRtcSpl_VectorBitShiftW32ToW16 T
_WebRtcSpl_ZerosArrayW16 T
_WebRtcSpl_ZerosArrayW32 T
_WebRtcVad_CalcVad16khz T
_WebRtcVad_CalcVad32khz T
_WebRtcVad_CalcVad48khz T
_WebRtcVad_CalcVad8khz T
_WebRtcVad_CalculateFeatures T
_WebRtcVad_Create T
_WebRtcVad_Downsampling T
_WebRtcVad_FindMinimum T
_WebRtcVad_Free T
_WebRtcVad_GaussianProbability T
_WebRtcVad_Init T
_WebRtcVad_InitCore T
_WebRtcVad_Process T
_WebRtcVad_ValidRateAndFrameLength T
_WebRtcVad_set_mode T
_WebRtcVad_set_mode_core T
_WebRtc_CreateBuffer T
_WebRtc_FreeBuffer T
_WebRtc_InitBuffer T
_WebRtc_MoveReadPtr T
_WebRtc_ReadBuffer T
_WebRtc_WriteBuffer T
_WebRtc_available_read T
_WebRtc_available_write T
__ZN3rtc10FromStringENSt3__117basic_string_viewIcNS0_11char_traitsIcEEEEPb T
__ZN3rtc10LogMessage10LogThreadsEb T
__ZN3rtc10LogMessage10LogToDebugENS_15LoggingSeverityE T
__ZN3rtc10LogMessage11log_thread_E S
__ZN3rtc10LogMessage12LogStartTimeEv T
__ZN3rtc10LogMessage13GetLogToDebugEv T
__ZN3rtc10LogMessage13LogTimestampsEb T
__ZN3rtc10LogMessage13OutputToDebugERKNS_10LogLineRefE T
__ZN3rtc10LogMessage14AddLogToStreamEPNS_7LogSinkENS_15LoggingSeverityE T
__ZN3rtc10LogMessage14GetLogToStreamEPNS_7LogSinkE T
__ZN3rtc10LogMessage14SetLogToStderrEb T
__ZN3rtc10LogMessage14log_timestamp_E S
__ZN3rtc10LogMessage14log_to_stderr_E D
__ZN3rtc10LogMessage14streams_empty_E D
__ZN3rtc10LogMessage16ConfigureLoggingENSt3__117basic_string_viewIcNS1_11char_traitsIcEEEE T
__ZN3rtc10LogMessage17FinishPrintStreamEv T
__ZN3rtc10LogMessage17GetMinLogSeverityEv T
__ZN3rtc10LogMessage17RemoveLogToStreamEPNS_7LogSinkE T
__ZN3rtc10LogMessage18WallClockStartTimeEv T
__ZN3rtc10LogMessage20UpdateMinLogSeverityEv T
__ZN3rtc10LogMessage6AddTagEPKc T
__ZN3rtc10LogMessage6IsNoopENS_15LoggingSeverityE T
__ZN3rtc10LogMessage6streamEv T
__ZN3rtc10LogMessage8streams_E S
__ZN3rtc10LogMessageC1EPKciNS_15LoggingSeverityE T
__ZN3rtc10LogMessageC1EPKciNS_15LoggingSeverityENS_15LogErrorContextEi T
__ZN3rtc10LogMessageC2EPKciNS_15LoggingSeverityE T
__ZN3rtc10LogMessageC2EPKciNS_15LoggingSeverityENS_15LogErrorContextEi T
__ZN3rtc10LogMessageD1Ev T
__ZN3rtc10LogMessageD2Ev T
__ZN3rtc10TimeDiff32Ejj T
__ZN3rtc10TimeMicrosEv T
__ZN3rtc10TimeMillisEv T
__ZN3rtc10hex_decodeENS_9ArrayViewIcLln4711EEENSt3__117basic_string_viewIcNS2_11char_traitsIcEEEE T
__ZN3rtc10hex_encodeENSt3__117basic_string_viewIcNS0_11char_traitsIcEEEE T
__ZN3rtc11RaceCheckerC1Ev T
__ZN3rtc11RaceCheckerC2Ev T
__ZN3rtc11TmToSecondsERK2tm T
__ZN3rtc12FunctionViewIFffEE10CallFunPtrIRS1_EEfNS2_9VoidUnionEf T
__ZN3rtc13StringBuilder12AppendFormatEPKcz T
__ZN3rtc13TimeUTCMicrosEv T
__ZN3rtc13TimeUTCMillisEv T
__ZN3rtc14PlatformThread11SpawnThreadENSt3__18functionIFvvEEENS1_17basic_string_viewIcNS1_11char_traitsIcEEEENS_16ThreadAttributesEb T
__ZN3rtc14PlatformThread13SpawnDetachedENSt3__18functionIFvvEEENS1_17basic_string_viewIcNS1_11char_traitsIcEEEENS_16ThreadAttributesE T
__ZN3rtc14PlatformThread13SpawnJoinableENSt3__18functionIFvvEEENS1_17basic_string_viewIcNS1_11char_traitsIcEEEENS_16ThreadAttributesE T
__ZN3rtc14PlatformThread8FinalizeEv T
__ZN3rtc14PlatformThreadC1EOS0_ T
__ZN3rtc14PlatformThreadC1EP17_opaque_pthread_tb T
__ZN3rtc14PlatformThreadC2EOS0_ T
__ZN3rtc14PlatformThreadC2EP17_opaque_pthread_tb T
__ZN3rtc14PlatformThreadD0Ev T
__ZN3rtc14PlatformThreadD1Ev T
__ZN3rtc14PlatformThreadD2Ev T
__ZN3rtc14PlatformThreadaSEOS0_ T
__ZN3rtc14tokenize_firstENSt3__117basic_string_viewIcNS0_11char_traitsIcEEEEcPNS0_12basic_stringIcS3_NS0_9allocatorIcEEEES9_ T
__ZN3rtc15CurrentThreadIdEv T
__ZN3rtc15SystemTimeNanosEv T
__ZN3rtc16CurrentThreadRefEv T
__ZN3rtc16IsThreadRefEqualERKP17_opaque_pthread_tS3_ T
__ZN3rtc16SystemTimeMillisEv T
__ZN3rtc17ScopedYieldPolicy14YieldExecutionEv T
__ZN3rtc17ScopedYieldPolicyC1EPNS_14YieldInterfaceE T
__ZN3rtc17ScopedYieldPolicyC2EPNS_14YieldInterfaceE T
__ZN3rtc17ScopedYieldPolicyD1Ev T
__ZN3rtc17ScopedYieldPolicyD2Ev T
__ZN3rtc18GetClockForTestingEv T
__ZN3rtc18SetClockForTestingEPNS_14ClockInterfaceE T
__ZN3rtc18webrtc_checks_impl13WriteFatalLogENSt3__117basic_string_viewIcNS1_11char_traitsIcEEEE T
__ZN3rtc18webrtc_checks_impl13WriteFatalLogEPKciNSt3__117basic_string_viewIcNS3_11char_traitsIcEEEE T
__ZN3rtc18webrtc_checks_impl22UnreachableCodeReachedEv T
__ZN3rtc18webrtc_checks_impl8FatalLogEPKciS2_PKNS0_12CheckArgTypeEz T
__ZN3rtc18webrtc_checks_impl8ParseArgEPPcPPKNS0_12CheckArgTypeEPNSt3__112basic_stringIcNS7_11char_traitsIcEENS7_9allocatorIcEEEE T
__ZN3rtc19SimpleStringBuilder12AppendFormatEPKcz T
__ZN3rtc19SimpleStringBuilderC1ENS_9ArrayViewIcLln4711EEE T
__ZN3rtc19SimpleStringBuilderC2ENS_9ArrayViewIcLln4711EEE T
__ZN3rtc19SimpleStringBuilderlsENSt3__117basic_string_viewIcNS1_11char_traitsIcEEEE T
__ZN3rtc19SimpleStringBuilderlsEc T
__ZN3rtc19SimpleStringBuilderlsEd T
__ZN3rtc19SimpleStringBuilderlsEe T
__ZN3rtc19SimpleStringBuilderlsEf T
__ZN3rtc19SimpleStringBuilderlsEi T
__ZN3rtc19SimpleStringBuilderlsEj T
__ZN3rtc19SimpleStringBuilderlsEl T
__ZN3rtc19SimpleStringBuilderlsEm T
__ZN3rtc19SimpleStringBuilderlsEx T
__ZN3rtc19SimpleStringBuilderlsEy T
__ZN3rtc19webrtc_logging_impl3LogEPKNS0_10LogArgTypeEz T
__ZN3rtc20SetCurrentThreadNameEPKc T
__ZN3rtc25hex_decode_with_delimiterENS_9ArrayViewIcLln4711EEENSt3__117basic_string_viewIcNS2_11char_traitsIcEEEEc T
__ZN3rtc25hex_encode_with_delimiterENSt3__117basic_string_viewIcNS0_11char_traitsIcEEEEc T
__ZN3rtc5Event3SetEv T
__ZN3rtc5Event4WaitEN6webrtc9TimeDeltaES2_ T
__ZN3rtc5Event5ResetEv T
__ZN3rtc5EventC1Ebb T
__ZN3rtc5EventC1Ev T
__ZN3rtc5EventC2Ebb T
__ZN3rtc5EventC2Ev T
__ZN3rtc5EventD1Ev T
__ZN3rtc5EventD2Ev T
__ZN3rtc5ToHexEi T
__ZN3rtc5splitENSt3__117basic_string_viewIcNS0_11char_traitsIcEEEEc T
__ZN3rtc6Time32Ev T
__ZN3rtc7LogSink12OnLogMessageENSt3__117basic_string_viewIcNS1_11char_traitsIcEEEE T
__ZN3rtc7LogSink12OnLogMessageENSt3__117basic_string_viewIcNS1_11char_traitsIcEEEENS_15LoggingSeverityE T
__ZN3rtc7LogSink12OnLogMessageENSt3__117basic_string_viewIcNS1_11char_traitsIcEEEENS_15LoggingSeverityEPKc T
__ZN3rtc7LogSink12OnLogMessageERKNS_10LogLineRefE T
__ZN3rtc7LogSink12OnLogMessageERKNSt3__112basic_stringIcNS1_11char_traitsIcEENS1_9allocatorIcEEEENS_15LoggingSeverityE T
__ZN3rtc7LogSink12OnLogMessageERKNSt3__112basic_stringIcNS1_11char_traitsIcEENS1_9allocatorIcEEEENS_15LoggingSeverityEPKc T
__ZN3rtc7g_clockE S
__ZN3rtc7strcpynEPcmNSt3__117basic_string_viewIcNS1_11char_traitsIcEEEE T
__ZN3rtc7tracing19SetupInternalTracerEb T
__ZN3rtc7tracing19StopInternalCaptureEv T
__ZN3rtc7tracing20StartInternalCaptureENSt3__117basic_string_viewIcNS1_11char_traitsIcEEEE T
__ZN3rtc7tracing22ShutdownInternalTracerEv T
__ZN3rtc7tracing26StartInternalCaptureToFileEP7__sFILE T
__ZN3rtc8TimeDiffExx T
__ZN3rtc8ToStringIbLPv0EEENSt3__112basic_stringIcNS2_11char_traitsIcEENS2_9allocatorIcEEEET_ T
__ZN3rtc8ToStringIeLPv0EEENSt3__112basic_stringIcNS2_11char_traitsIcEENS2_9allocatorIcEEEET_ T
__ZN3rtc8internal16RaceCheckerScopeC1EPKNS_11RaceCheckerE T
__ZN3rtc8internal16RaceCheckerScopeC2EPKNS_11RaceCheckerE T
__ZN3rtc8internal16RaceCheckerScopeD1Ev T
__ZN3rtc8internal16RaceCheckerScopeD2Ev T
__ZN3rtc8tokenizeENSt3__117basic_string_viewIcNS0_11char_traitsIcEEEEcPNS0_6vectorINS0_12basic_stringIcS3_NS0_9allocatorIcEEEENS7_IS9_EEEE T
__ZN3rtc9TimeAfterEx T
__ZN3rtc9TimeNanosEv T
__ZN4absl12lts_2024072210SimpleAtobENSt3__117basic_string_viewIcNS1_11char_traitsIcEEEEPb T
__ZN4absl12lts_2024072210SimpleAtodENSt3__117basic_string_viewIcNS1_11char_traitsIcEEEEPd T
__ZN4absl12lts_2024072210SimpleAtofENSt3__117basic_string_viewIcNS1_11char_traitsIcEEEEPf T
__ZN4absl12lts_2024072210from_charsEPKcS2_RdNS0_12chars_formatE T
__ZN4absl12lts_2024072210from_charsEPKcS2_RfNS0_12chars_formatE T
__ZN4absl12lts_2024072213base_internal10AtomicHookIPFvPKciS4_S4_S4_EE13DummyFunctionES4_iS4_S4_S4_ T
__ZN4absl12lts_2024072214ascii_internal13kPropertyBitsE S
__ZN4absl12lts_2024072214ascii_internal8kToLowerE S
__ZN4absl12lts_2024072214ascii_internal8kToUpperE S
__ZN4absl12lts_2024072215AsciiStrToLowerEPNSt3__112basic_stringIcNS1_11char_traitsIcEENS1_9allocatorIcEEEE T
__ZN4absl12lts_2024072215AsciiStrToUpperEPNSt3__112basic_stringIcNS1_11char_traitsIcEENS1_9allocatorIcEEEE T
__ZN4absl12lts_2024072216EqualsIgnoreCaseENSt3__117basic_string_viewIcNS1_11char_traitsIcEEEES5_ T
__ZN4absl12lts_2024072216numbers_internal12PutTwoDigitsEjPc T
__ZN4absl12lts_2024072216numbers_internal15FastIntToBufferEiPc T
__ZN4absl12lts_2024072216numbers_internal15FastIntToBufferEjPc T
__ZN4absl12lts_2024072216numbers_internal15FastIntToBufferExPc T
__ZN4absl12lts_2024072216numbers_internal15FastIntToBufferEyPc T
__ZN4absl12lts_2024072216numbers_internal17SixDigitsToBufferEdPc T
__ZN4absl12lts_2024072216numbers_internal17safe_strto32_baseENSt3__117basic_string_viewIcNS2_11char_traitsIcEEEEPii T
__ZN4absl12lts_2024072216numbers_internal17safe_strto64_baseENSt3__117basic_string_viewIcNS2_11char_traitsIcEEEEPxi T
__ZN4absl12lts_2024072216numbers_internal18safe_strto128_baseENSt3__117basic_string_viewIcNS2_11char_traitsIcEEEEPNS0_6int128Ei T
__ZN4absl12lts_2024072216numbers_internal18safe_strtou32_baseENSt3__117basic_string_viewIcNS2_11char_traitsIcEEEEPji T
__ZN4absl12lts_2024072216numbers_internal18safe_strtou64_baseENSt3__117basic_string_viewIcNS2_11char_traitsIcEEEEPyi T
__ZN4absl12lts_2024072216numbers_internal19safe_strtou128_baseENSt3__117basic_string_viewIcNS2_11char_traitsIcEEEEPNS0_7uint128Ei T
__ZN4absl12lts_2024072216numbers_internal8kHexCharE S
__ZN4absl12lts_2024072216numbers_internal9kHexTableE S
__ZN4absl12lts_2024072216raw_log_internal17RegisterAbortHookEPFvPKciS3_S3_S3_E T
__ZN4absl12lts_2024072216raw_log_internal21internal_log_functionE D
__ZN4absl12lts_2024072216raw_log_internal24RawLoggingFullySupportedEv T
__ZN4absl12lts_2024072216raw_log_internal25AsyncSignalSafeWriteErrorEPKcm T
__ZN4absl12lts_2024072216raw_log_internal27RegisterInternalLogFunctionEPFvNS0_11LogSeverityEPKciRKNSt3__112basic_stringIcNS5_11char_traitsIcEENS5_9allocatorIcEEEEE T
__ZN4absl12lts_2024072216raw_log_internal30RegisterLogFilterAndPrefixHookEPFbNS0_11LogSeverityEPKciPPcPiE T
__ZN4absl12lts_2024072216raw_log_internal6RawLogENS0_11LogSeverityEPKciS4_z T
__ZN4absl12lts_2024072216strings_internal10ParseFloatILi10EEENS1_11ParsedFloatEPKcS5_NS0_12chars_formatE T
__ZN4absl12lts_2024072216strings_internal10ParseFloatILi16EEENS1_11ParsedFloatEPKcS5_NS0_12chars_formatE T
__ZN4absl12lts_2024072216strings_internal10kFiveToNthE S
__ZN4absl12lts_2024072216strings_internal10memcasecmpEPKcS3_m T
__ZN4absl12lts_2024072216strings_internal11BigUnsignedILi4EE10MultiplyByEiPKj T
__ZN4absl12lts_2024072216strings_internal11BigUnsignedILi4EE10MultiplyByEj T
__ZN4absl12lts_2024072216strings_internal11BigUnsignedILi4EE10MultiplyByEy T
__ZN4absl12lts_2024072216strings_internal11BigUnsignedILi4EE10ReadDigitsEPKcS5_i T
__ZN4absl12lts_2024072216strings_internal11BigUnsignedILi4EE12AddWithCarryEij T
__ZN4absl12lts_2024072216strings_internal11BigUnsignedILi4EE12AddWithCarryEiy T
__ZN4absl12lts_2024072216strings_internal11BigUnsignedILi4EE12FiveToTheNthEi T
__ZN4absl12lts_2024072216strings_internal11BigUnsignedILi4EE12MultiplyStepEiPKjii T
__ZN4absl12lts_2024072216strings_internal11BigUnsignedILi4EE17ReadFloatMantissaERKNS1_11ParsedFloatEi T
__ZN4absl12lts_2024072216strings_internal11BigUnsignedILi4EE21MultiplyByTenToTheNthEi T
__ZN4absl12lts_2024072216strings_internal11BigUnsignedILi4EE22MultiplyByFiveToTheNthEi T
__ZN4absl12lts_2024072216strings_internal11BigUnsignedILi4EE8Digits10Ev T
__ZN4absl12lts_2024072216strings_internal11BigUnsignedILi4EE9SetToZeroEv T
__ZN4absl12lts_2024072216strings_internal11BigUnsignedILi4EE9ShiftLeftEi T
__ZN4absl12lts_2024072216strings_internal11BigUnsignedILi4EEC1ENSt3__117basic_string_viewIcNS4_11char_traitsIcEEEE T
__ZN4absl12lts_2024072216strings_internal11BigUnsignedILi4EEC1Ev T
__ZN4absl12lts_2024072216strings_internal11BigUnsignedILi4EEC1Ey T
__ZN4absl12lts_2024072216strings_internal11BigUnsignedILi4EEC2ENSt3__117basic_string_viewIcNS4_11char_traitsIcEEEE T
__ZN4absl12lts_2024072216strings_internal11BigUnsignedILi4EEC2Ev T
__ZN4absl12lts_2024072216strings_internal11BigUnsignedILi4EEC2Ey T
__ZN4absl12lts_2024072216strings_internal11BigUnsignedILi84EE10MultiplyByEiPKj T
__ZN4absl12lts_2024072216strings_internal11BigUnsignedILi84EE10MultiplyByEj T
__ZN4absl12lts_2024072216strings_internal11BigUnsignedILi84EE10MultiplyByEy T
__ZN4absl12lts_2024072216strings_internal11BigUnsignedILi84EE10ReadDigitsEPKcS5_i T
__ZN4absl12lts_2024072216strings_internal11BigUnsignedILi84EE12AddWithCarryEij T
__ZN4absl12lts_2024072216strings_internal11BigUnsignedILi84EE12AddWithCarryEiy T
__ZN4absl12lts_2024072216strings_internal11BigUnsignedILi84EE12FiveToTheNthEi T
__ZN4absl12lts_2024072216strings_internal11BigUnsignedILi84EE12MultiplyStepEiPKjii T
__ZN4absl12lts_2024072216strings_internal11BigUnsignedILi84EE17ReadFloatMantissaERKNS1_11ParsedFloatEi T
__ZN4absl12lts_2024072216strings_internal11BigUnsignedILi84EE21MultiplyByTenToTheNthEi T
__ZN4absl12lts_2024072216strings_internal11BigUnsignedILi84EE22MultiplyByFiveToTheNthEi T
__ZN4absl12lts_2024072216strings_internal11BigUnsignedILi84EE8Digits10Ev T
__ZN4absl12lts_2024072216strings_internal11BigUnsignedILi84EE9SetToZeroEv T
__ZN4absl12lts_2024072216strings_internal11BigUnsignedILi84EE9ShiftLeftEi T
__ZN4absl12lts_2024072216strings_internal11BigUnsignedILi84EEC1ENSt3__117basic_string_viewIcNS4_11char_traitsIcEEEE T
__ZN4absl12lts_2024072216strings_internal11BigUnsignedILi84EEC1Ev T
__ZN4absl12lts_2024072216strings_internal11BigUnsignedILi84EEC1Ey T
__ZN4absl12lts_2024072216strings_internal11BigUnsignedILi84EEC2ENSt3__117basic_string_viewIcNS4_11char_traitsIcEEEE T
__ZN4absl12lts_2024072216strings_internal11BigUnsignedILi84EEC2Ev T
__ZN4absl12lts_2024072216strings_internal11BigUnsignedILi84EEC2Ey T
__ZN4absl12lts_2024072216strings_internal9kTenToNthE S
__ZN4absl12lts_2024072218EndsWithIgnoreCaseENSt3__117basic_string_viewIcNS1_11char_traitsIcEEEES5_ T
__ZN4absl12lts_2024072220StartsWithIgnoreCaseENSt3__117basic_string_viewIcNS1_11char_traitsIcEEEES5_ T
__ZN4absl12lts_2024072221StrContainsIgnoreCaseENSt3__117basic_string_viewIcNS1_11char_traitsIcEEEES5_ T
__ZN4absl12lts_2024072221StrContainsIgnoreCaseENSt3__117basic_string_viewIcNS1_11char_traitsIcEEEEc T
__ZN4absl12lts_2024072223FindLongestCommonPrefixENSt3__117basic_string_viewIcNS1_11char_traitsIcEEEES5_ T
__ZN4absl12lts_2024072223FindLongestCommonSuffixENSt3__117basic_string_viewIcNS1_11char_traitsIcEEEES5_ T
__ZN4absl12lts_2024072226RemoveExtraAsciiWhitespaceEPNSt3__112basic_stringIcNS1_11char_traitsIcEENS1_9allocatorIcEEEE T
__ZN6webrtc10AudioFrame11UpdateFrameEjPKsmiNS0_10SpeechTypeENS0_11VADActivityEm T
__ZN6webrtc10AudioFrame11zeroed_dataEv T
__ZN6webrtc10AudioFrame12mutable_dataEmm T
__ZN6webrtc10AudioFrame12mutable_dataEv T
__ZN6webrtc10AudioFrame18ResetWithoutMutingEv T
__ZN6webrtc10AudioFrame22UpdateProfileTimeStampEv T
__ZN6webrtc10AudioFrame23SetLayoutAndNumChannelsENS_13ChannelLayoutEm T
__ZN6webrtc10AudioFrame27SetSampleRateAndChannelSizeEi T
__ZN6webrtc10AudioFrame4MuteEv T
__ZN6webrtc10AudioFrame5ResetEv T
__ZN6webrtc10AudioFrame8CopyFromERKS0_ T
__ZN6webrtc10AudioFrameC1EimNS_13ChannelLayoutE T
__ZN6webrtc10AudioFrameC1Ev T
__ZN6webrtc10AudioFrameC2EimNS_13ChannelLayoutE T
__ZN6webrtc10AudioFrameC2Ev T
__ZN6webrtc10ComputeErlERKNS_16Aec3OptimizationERKNSt3__16vectorINS3_5arrayIfLm65EEENS3_9allocatorIS6_EEEEN3rtc9ArrayViewIfLln4711EEE T
__ZN6webrtc10FloatToS16EPKfmPs T
__ZN6webrtc10Histograms5ClearEv T
__ZN6webrtc10Histograms6UpdateERKNS_11SignalModelE T
__ZN6webrtc10HistogramsC1Ev T
__ZN6webrtc10HistogramsC2Ev T
__ZN6webrtc10S16ToFloatEPKsmPf T
__ZN6webrtc10Subtractor16ExitInitialStateEv T
__ZN6webrtc10Subtractor20HandleEchoPathChangeERKNS_19EchoPathVariabilityE T
__ZN6webrtc10Subtractor28FilterMisadjustmentEstimator5ResetEv T
__ZN6webrtc10Subtractor28FilterMisadjustmentEstimator6UpdateERKNS_16SubtractorOutputE T
__ZN6webrtc10Subtractor7ProcessERKNS_12RenderBufferERKNS_5BlockERKNS_20RenderSignalAnalyzerERKNS_8AecStateEN3rtc9ArrayViewINS_16SubtractorOutputELln4711EEE T
__ZN6webrtc10SubtractorC1ERKNS_20EchoCanceller3ConfigEmmPNS_13ApmDataDumperENS_16Aec3OptimizationE T
__ZN6webrtc10SubtractorC2ERKNS_20EchoCanceller3ConfigEmmPNS_13ApmDataDumperENS_16Aec3OptimizationE T
__ZN6webrtc10SubtractorD1Ev T
__ZN6webrtc10SubtractorD2Ev T
__ZN6webrtc11AlignedFreeEPv T
__ZN6webrtc11AudioBuffer16set_num_channelsEm T
__ZN6webrtc11AudioBuffer18RestoreNumChannelsEv T
__ZN6webrtc11AudioBuffer19MergeFrequencyBandsEv T
__ZN6webrtc11AudioBuffer22ImportSplitChannelDataEmPKPKs T
__ZN6webrtc11AudioBuffer23SplitIntoFrequencyBandsEv T
__ZN6webrtc11AudioBuffer27set_downmixing_by_averagingEv T
__ZN6webrtc11AudioBuffer34set_downmixing_to_specific_channelEm T
__ZN6webrtc11AudioBuffer6CopyToERKNS_12StreamConfigEPKPf T
__ZN6webrtc11AudioBuffer6CopyToERKNS_12StreamConfigEPs T
__ZN6webrtc11AudioBuffer8CopyFromEPKPKfRKNS_12StreamConfigE T
__ZN6webrtc11AudioBuffer8CopyFromEPKsRKNS_12StreamConfigE T
__ZN6webrtc11AudioBufferC1Emmmmmm T
__ZN6webrtc11AudioBufferC2Emmmmmm T
__ZN6webrtc11AudioBufferD0Ev T
__ZN6webrtc11AudioBufferD1Ev T
__ZN6webrtc11AudioBufferD2Ev T
__ZN6webrtc11BlockBufferC1Emmm T
__ZN6webrtc11BlockBufferC2Emmm T
__ZN6webrtc11BlockBufferD1Ev T
__ZN6webrtc11BlockBufferD2Ev T
__ZN6webrtc11BlockFramer11InsertBlockERKNS_5BlockE T
__ZN6webrtc11BlockFramer29InsertBlockAndExtractSubFrameERKNS_5BlockEPNSt3__16vectorINS5_IN3rtc9ArrayViewIfLln4711EEENS4_9allocatorIS8_EEEENS9_ISB_EEEE T
__ZN6webrtc11BlockFramerC1Emm T
__ZN6webrtc11BlockFramerC2Emm T
__ZN6webrtc11BlockFramerD1Ev T
__ZN6webrtc11BlockFramerD2Ev T
__ZN6webrtc11Db2LoudnessEd T
__ZN6webrtc11EchoRemover6CreateERKNS_20EchoCanceller3ConfigEimm T
__ZN6webrtc11EvaluateGmmEPKdRKNS_13GmmParametersE T
__ZN6webrtc11EventTracer13AddTraceEventEcPKhPKcyiPS4_S2_PKyh T
__ZN6webrtc11EventTracer18GetCategoryEnabledEPKc T
__ZN6webrtc11GainApplier10InitializeEi T
__ZN6webrtc11GainApplier13SetGainFactorEf T
__ZN6webrtc11GainApplier9ApplyGainENS_17DeinterleavedViewIfEE T
__ZN6webrtc11GainApplierC1Ebf T
__ZN6webrtc11GainApplierC2Ebf T
__ZN6webrtc11Loudness2DbEd T
__ZN6webrtc11ReverbModel12UpdateReverbEN3rtc9ArrayViewIKfLln4711EEES4_f T
__ZN6webrtc11ReverbModel25UpdateReverbNoFreqShapingEN3rtc9ArrayViewIKfLln4711EEEff T
__ZN6webrtc11ReverbModel5ResetEv T
__ZN6webrtc11ReverbModelC1Ev T
__ZN6webrtc11ReverbModelC2Ev T
__ZN6webrtc11ReverbModelD1Ev T
__ZN6webrtc11ReverbModelD2Ev T
__ZN6webrtc11SignalModelC1Ev T
__ZN6webrtc11SignalModelC2Ev T
__ZN6webrtc11WebRtc_rdftEmiPfPmS0_ T
__ZN6webrtc11field_trial12FindFullNameENSt3__117basic_string_viewIcNS1_11char_traitsIcEEEE T
__ZN6webrtc11field_trial19GetFieldTrialStringEv T
__ZN6webrtc11field_trial23MergeFieldTrialsStringsENSt3__117basic_string_viewIcNS1_11char_traitsIcEEEES5_ T
__ZN6webrtc11field_trial24FieldTrialsStringIsValidENSt3__117basic_string_viewIcNS1_11char_traitsIcEEEE T
__ZN6webrtc11field_trial25InitFieldTrialsFromStringEPKc T
__ZN6webrtc11field_trial35FieldTrialsAllowedInScopeForTestingC1ENS_24flat_containers_internal9flat_treeINSt3__112basic_stringIcNS4_11char_traitsIcEENS4_9allocatorIcEEEENS_8identityENS4_4lessIvEENS4_6vectorISA_NS8_ISA_EEEEEE T
__ZN6webrtc11field_trial35FieldTrialsAllowedInScopeForTestingC2ENS_24flat_containers_internal9flat_treeINSt3__112basic_stringIcNS4_11char_traitsIcEENS4_9allocatorIcEEEENS_8identityENS4_4lessIvEENS4_6vectorISA_NS8_ISA_EEEEEE T
__ZN6webrtc11field_trial35FieldTrialsAllowedInScopeForTestingD1Ev T
__ZN6webrtc11field_trial35FieldTrialsAllowedInScopeForTestingD2Ev T
__ZN6webrtc11field_trial37InsertOrReplaceFieldTrialStringsInMapEPNSt3__13mapINS1_12basic_stringIcNS1_11char_traitsIcEENS1_9allocatorIcEEEES8_NS1_4lessIS8_EENS6_INS1_4pairIKS8_S8_EEEEEENS1_17basic_string_viewIcS5_EE T
__ZN6webrtc12AdjustConfigERKNS_20EchoCanceller3ConfigE T
__ZN6webrtc12BiQuadFilter5ResetEv T
__ZN6webrtc12BiQuadFilter7ProcessEN3rtc9ArrayViewIKfLln4711EEENS2_IfLln4711EEE T
__ZN6webrtc12BiQuadFilter9SetConfigERKNS0_6ConfigE T
__ZN6webrtc12BiQuadFilterC1ERKNS0_6ConfigE T
__ZN6webrtc12BiQuadFilterC2ERKNS0_6ConfigE T
__ZN6webrtc12BiQuadFilterD1Ev T
__ZN6webrtc12BiQuadFilterD2Ev T
__ZN6webrtc12ChannelOrderENS_13ChannelLayoutENS_8ChannelsE T
__ZN6webrtc12ErlEstimator5ResetEv T
__ZN6webrtc12ErlEstimator6UpdateERKNSt3__16vectorIbNS1_9allocatorIbEEEEN3rtc9ArrayViewIKNS1_5arrayIfLm65EEELln4711EEESD_ T
__ZN6webrtc12ErlEstimatorC1Em T
__ZN6webrtc12ErlEstimatorC2Em T
__ZN6webrtc12ErlEstimatorD1Ev T
__ZN6webrtc12ErlEstimatorD2Ev T
__ZN6webrtc12FrameBlocker12ExtractBlockEPNS_5BlockE T
__ZN6webrtc12FrameBlocker29InsertSubFrameAndExtractBlockERKNSt3__16vectorINS2_IN3rtc9ArrayViewIfLln4711EEENS1_9allocatorIS5_EEEENS6_IS8_EEEEPNS_5BlockE T
__ZN6webrtc12FrameBlockerC1Emm T
__ZN6webrtc12FrameBlockerC2Emm T
__ZN6webrtc12FrameBlockerD1Ev T
__ZN6webrtc12FrameBlockerD2Ev T
__ZN6webrtc12RenderBufferC1EPNS_11BlockBufferEPNS_14SpectrumBufferEPNS_9FftBufferE T
__ZN6webrtc12RenderBufferC2EPNS_11BlockBufferEPNS_14SpectrumBufferEPNS_9FftBufferE T
__ZN6webrtc12RenderBufferD1Ev T
__ZN6webrtc12RenderBufferD2Ev T
__ZN6webrtc12VadAudioProc11ResetBufferEv T
__ZN6webrtc12VadAudioProc13PitchAnalysisEPdS1_m T
__ZN6webrtc12VadAudioProc15ExtractFeaturesEPKsmP13AudioFeatures T
__ZN6webrtc12VadAudioProc17GetLpcPolynomialsEPdm T
__ZN6webrtc12VadAudioProc19SubframeCorrelationEPdmm T
__ZN6webrtc12VadAudioProc22FindFirstSpectralPeaksEPdm T
__ZN6webrtc12VadAudioProc3RmsEPdm T
__ZN6webrtc12VadAudioProcC1Ev T
__ZN6webrtc12VadAudioProcC2Ev T
__ZN6webrtc12VadAudioProcD1Ev T
__ZN6webrtc12VadAudioProcD2Ev T
__ZN6webrtc12WienerFilter6UpdateEiN3rtc9ArrayViewIKfLl129EEES4_S4_S4_ T
__ZN6webrtc12WienerFilterC1ERKNS_17SuppressionParamsE T
__ZN6webrtc12WienerFilterC2ERKNS_17SuppressionParamsE T
__ZN6webrtc13AlignedMallocEmm T
__ZN6webrtc13ApmDataDumperC1Ei T
__ZN6webrtc13ApmDataDumperC2Ei T
__ZN6webrtc13ApmDataDumperD1Ev T
__ZN6webrtc13ApmDataDumperD2Ev T
__ZN6webrtc13Dbfs2LoudnessEd T
__ZN6webrtc13ErleEstimator5ResetEb T
__ZN6webrtc13ErleEstimator6UpdateERKNS_12RenderBufferEN3rtc9ArrayViewIKNSt3__16vectorINS6_5arrayIfLm65EEENS6_9allocatorIS9_EEEELln4711EEENS5_IKfLl65EEENS5_IKS9_Lln4711EEESI_RKNS7_IbNSA_IbEEEE T
__ZN6webrtc13ErleEstimatorC1EmRKNS_20EchoCanceller3ConfigEm T
__ZN6webrtc13ErleEstimatorC2EmRKNS_20EchoCanceller3ConfigEm T
__ZN6webrtc13ErleEstimatorD1Ev T
__ZN6webrtc13ErleEstimatorD2Ev T
__ZN6webrtc13FloatS16ToS16EPKfmPs T
__ZN6webrtc13GetRightAlignEPKvm T
__ZN6webrtc13GetRightAlignEmm T
__ZN6webrtc13MatchedFilter4DumpEv T
__ZN6webrtc13MatchedFilter5ResetEb T
__ZN6webrtc13MatchedFilter6UpdateERKNS_23DownsampledRenderBufferEN3rtc9ArrayViewIKfLln4711EEEb T
__ZN6webrtc13MatchedFilterC1EPNS_13ApmDataDumperENS_16Aec3OptimizationEmmimffffb T
__ZN6webrtc13MatchedFilterC2EPNS_13ApmDataDumperENS_16Aec3OptimizationEmmimffffb T
__ZN6webrtc13MatchedFilterD1Ev T
__ZN6webrtc13MatchedFilterD2Ev T
__ZN6webrtc13PitchBasedVad11UpdatePriorEd T
__ZN6webrtc13PitchBasedVad18VoicingProbabilityERK13AudioFeaturesPd T
__ZN6webrtc13PitchBasedVadC1Ev T
__ZN6webrtc13PitchBasedVadC2Ev T
__ZN6webrtc13PitchBasedVadD1Ev T
__ZN6webrtc13PitchBasedVadD2Ev T
__ZN6webrtc13PushResamplerIfE17EnsureInitializedEmmm T
__ZN6webrtc13PushResamplerIfE8ResampleEN3rtc9ArrayViewIKfLln4711EEENS3_IfLln4711EEE T
__ZN6webrtc13PushResamplerIfE8ResampleENS_15InterleavedViewIKfEENS2_IfEE T
__ZN6webrtc13PushResamplerIfEC1Emmm T
__ZN6webrtc13PushResamplerIfEC1Ev T
__ZN6webrtc13PushResamplerIfEC2Emmm T
__ZN6webrtc13PushResamplerIfEC2Ev T
__ZN6webrtc13PushResamplerIfED1Ev T
__ZN6webrtc13PushResamplerIfED2Ev T
__ZN6webrtc13PushResamplerIsE17EnsureInitializedEmmm T
__ZN6webrtc13PushResamplerIsE8ResampleEN3rtc9ArrayViewIKsLln4711EEENS3_IsLln4711EEE T
__ZN6webrtc13PushResamplerIsE8ResampleENS_15InterleavedViewIKsEENS2_IsEE T
__ZN6webrtc13PushResamplerIsEC1Emmm T
__ZN6webrtc13PushResamplerIsEC1Ev T
__ZN6webrtc13PushResamplerIsEC2Emmm T
__ZN6webrtc13PushResamplerIsEC2Ev T
__ZN6webrtc13PushResamplerIsED1Ev T
__ZN6webrtc13PushResamplerIsED2Ev T
__ZN6webrtc13S16ToFloatS16EPKsmPf T
__ZN6webrtc13SincResampler10Convolve_CEPKfS2_S2_d T
__ZN6webrtc13SincResampler11kKernelSizeE S
__ZN6webrtc13SincResampler13UpdateRegionsEb T
__ZN6webrtc13SincResampler16InitializeKernelEv T
__ZN6webrtc13SincResampler29InitializeCPUSpecificFeaturesEv T
__ZN6webrtc13SincResampler5FlushEv T
__ZN6webrtc13SincResampler8ResampleEmPf T
__ZN6webrtc13SincResampler8SetRatioEd T
__ZN6webrtc13SincResamplerC1EdmPNS_21SincResamplerCallbackE T
__ZN6webrtc13SincResamplerC2EdmPNS_21SincResamplerCallbackE T
__ZN6webrtc13SincResamplerD0Ev T
__ZN6webrtc13SincResamplerD1Ev T
__ZN6webrtc13SincResamplerD2Ev T
__ZN6webrtc13StandaloneVad11GetActivityEPdm T
__ZN6webrtc13StandaloneVad6CreateEv T
__ZN6webrtc13StandaloneVad8AddAudioEPKsm T
__ZN6webrtc13StandaloneVad8set_modeEi T
__ZN6webrtc13StandaloneVadC1EP13WebRtcVadInst T
__ZN6webrtc13StandaloneVadC2EP13WebRtcVadInst T
__ZN6webrtc13StandaloneVadD1Ev T
__ZN6webrtc13StandaloneVadD2Ev T
__ZN6webrtc14AecDumpFactory6CreateENS_11FileWrapperExPNS_13TaskQueueBaseE T
__ZN6webrtc14AecDumpFactory6CreateENSt3__117basic_string_viewIcNS1_11char_traitsIcEEEExPNS_13TaskQueueBaseE T
__ZN6webrtc14AecDumpFactory6CreateEP7__sFILExPNS_13TaskQueueBaseE T
__ZN6webrtc14AlignmentMixer13ProduceOutputERKNS_5BlockEN3rtc9ArrayViewIfLl64EEE T
__ZN6webrtc14AlignmentMixer13SelectChannelERKNS_5BlockE T
__ZN6webrtc14AlignmentMixerC1EmRKNS_20EchoCanceller3Config5Delay15AlignmentMixingE T
__ZN6webrtc14AlignmentMixerC1Embbfb T
__ZN6webrtc14AlignmentMixerC2EmRKNS_20EchoCanceller3Config5Delay15AlignmentMixingE T
__ZN6webrtc14AlignmentMixerC2Embbfb T
__ZN6webrtc14AudioConverter6CreateEmmmm T
__ZN6webrtc14AudioConverterC2Emmmm T
__ZN6webrtc14AudioConverterC2Ev T
__ZN6webrtc14BlockProcessor6CreateERKNS_20EchoCanceller3ConfigEimm T
__ZN6webrtc14BlockProcessor6CreateERKNS_20EchoCanceller3ConfigEimmNSt3__110unique_ptrINS_17RenderDelayBufferENS4_14default_deleteIS6_EEEE T
__ZN6webrtc14BlockProcessor6CreateERKNS_20EchoCanceller3ConfigEimmNSt3__110unique_ptrINS_17RenderDelayBufferENS4_14default_deleteIS6_EEEENS5_INS_21RenderDelayControllerENS7_ISA_EEEENS5_INS_11EchoRemoverENS7_ISD_EEEE T
__ZN6webrtc14CircularBuffer3PopEv T
__ZN6webrtc14CircularBuffer4PushEf T
__ZN6webrtc14CircularBuffer5ClearEv T
__ZN6webrtc14CircularBufferC1Em T
__ZN6webrtc14CircularBufferC2Em T
__ZN6webrtc14CircularBufferD1Ev T
__ZN6webrtc14CircularBufferD2Ev T
__ZN6webrtc14ConfigSelector6UpdateEb T
__ZN6webrtc14ConfigSelectorC1ERKNS_20EchoCanceller3ConfigERKNSt3__18optionalIS1_EEi T
__ZN6webrtc14ConfigSelectorC2ERKNS_20EchoCanceller3ConfigERKNSt3__18optionalIS1_EEi T
__ZN6webrtc14EchoAudibility14IsRenderTooLowERKNS_11BlockBufferE T
__ZN6webrtc14EchoAudibility26UpdateRenderNoiseEstimatorERKNS_14SpectrumBufferERKNS_11BlockBufferEb T
__ZN6webrtc14EchoAudibility29UpdateRenderStationarityFlagsERKNS_12RenderBufferEN3rtc9ArrayViewIKfLln4711EEEi T
__ZN6webrtc14EchoAudibility5ResetEv T
__ZN6webrtc14EchoAudibility6UpdateERKNS_12RenderBufferEN3rtc9ArrayViewIKfLln4711EEEib T
__ZN6webrtc14EchoAudibilityC1Eb T
__ZN6webrtc14EchoAudibilityC2Eb T
__ZN6webrtc14EchoAudibilityD1Ev T
__ZN6webrtc14EchoAudibilityD2Ev T
__ZN6webrtc14EchoCanceller310InitializeEv T
__ZN6webrtc14EchoCanceller312RenderWriter6InsertERKNS_11AudioBufferE T
__ZN6webrtc14EchoCanceller312RenderWriterC1EPNS_13ApmDataDumperERKNS_20EchoCanceller3ConfigEPNS_9SwapQueueINSt3__16vectorINS9_INS9_IfNS8_9allocatorIfEEEENSA_ISC_EEEENSA_ISE_EEEENS_27Aec3RenderQueueItemVerifierEEEmm T
__ZN6webrtc14EchoCanceller312RenderWriterC2EPNS_13ApmDataDumperERKNS_20EchoCanceller3ConfigEPNS_9SwapQueueINSt3__16vectorINS9_INS9_IfNS8_9allocatorIfEEEENSA_ISC_EEEENSA_ISE_EEEENS_27Aec3RenderQueueItemVerifierEEEmm T
__ZN6webrtc14EchoCanceller312RenderWriterD1Ev T
__ZN6webrtc14EchoCanceller312RenderWriterD2Ev T
__ZN6webrtc14EchoCanceller313AnalyzeRenderERKNS_11AudioBufferE T
__ZN6webrtc14EchoCanceller314AnalyzeCaptureERKNS_11AudioBufferE T
__ZN6webrtc14EchoCanceller314ProcessCaptureEPNS_11AudioBufferES2_b T
__ZN6webrtc14EchoCanceller314ProcessCaptureEPNS_11AudioBufferEb T
__ZN6webrtc14EchoCanceller315instance_count_E S
__ZN6webrtc14EchoCanceller316EmptyRenderQueueEv T
__ZN6webrtc14EchoCanceller319SetAudioBufferDelayEi T
__ZN6webrtc14EchoCanceller321SetCaptureOutputUsageEb T
__ZN6webrtc14EchoCanceller327SetBlockProcessorForTestingENSt3__110unique_ptrINS_14BlockProcessorENS1_14default_deleteIS3_EEEE T
__ZN6webrtc14EchoCanceller331CreateDefaultMultichannelConfigEv T
__ZN6webrtc14EchoCanceller3C1ERKNS_20EchoCanceller3ConfigERKNSt3__18optionalIS1_EEimm T
__ZN6webrtc14EchoCanceller3C2ERKNS_20EchoCanceller3ConfigERKNSt3__18optionalIS1_EEimm T
__ZN6webrtc14EchoCanceller3D0Ev T
__ZN6webrtc14EchoCanceller3D1Ev T
__ZN6webrtc14EchoCanceller3D2Ev T
__ZN6webrtc14FieldTrialFlag5ParseENSt3__18optionalINS1_12basic_stringIcNS1_11char_traitsIcEENS1_9allocatorIcEEEEEE T
__ZN6webrtc14FieldTrialFlagC1ENSt3__117basic_string_viewIcNS1_11char_traitsIcEEEE T
__ZN6webrtc14FieldTrialFlagC1ENSt3__117basic_string_viewIcNS1_11char_traitsIcEEEEb T
__ZN6webrtc14FieldTrialFlagC2ENSt3__117basic_string_viewIcNS1_11char_traitsIcEEEE T
__ZN6webrtc14FieldTrialFlagC2ENSt3__117basic_string_viewIcNS1_11char_traitsIcEEEEb T
__ZN6webrtc14FilterAnalyzer11ResetRegionEv T
__ZN6webrtc14FilterAnalyzer13AnalyzeRegionEN3rtc9ArrayViewIKNSt3__16vectorIfNS3_9allocatorIfEEEELln4711EEERKNS_12RenderBufferE T
__ZN6webrtc14FilterAnalyzer15instance_count_E S
__ZN6webrtc14FilterAnalyzer16UpdateFilterGainEN3rtc9ArrayViewIKfLln4711EEEPNS0_19FilterAnalysisStateE T
__ZN6webrtc14FilterAnalyzer17PreProcessFiltersEN3rtc9ArrayViewIKNSt3__16vectorIfNS3_9allocatorIfEEEELln4711EEE T
__ZN6webrtc14FilterAnalyzer18SetRegionToAnalyzeEm T
__ZN6webrtc14FilterAnalyzer24ConsistentFilterDetector5ResetEv T
__ZN6webrtc14FilterAnalyzer24ConsistentFilterDetector6DetectEN3rtc9ArrayViewIKfLln4711EEERKNS0_12FilterRegionERKNS_5BlockEmi T
__ZN6webrtc14FilterAnalyzer24ConsistentFilterDetectorC1ERKNS_20EchoCanceller3ConfigE T
__ZN6webrtc14FilterAnalyzer24ConsistentFilterDetectorC2ERKNS_20EchoCanceller3ConfigE T
__ZN6webrtc14FilterAnalyzer5ResetEv T
__ZN6webrtc14FilterAnalyzer6UpdateEN3rtc9ArrayViewIKNSt3__16vectorIfNS3_9allocatorIfEEEELln4711EEERKNS_12RenderBufferEPbPf T
__ZN6webrtc14FilterAnalyzerC1ERKNS_20EchoCanceller3ConfigEm T
__ZN6webrtc14FilterAnalyzerC2ERKNS_20EchoCanceller3ConfigEm T
__ZN6webrtc14FilterAnalyzerD1Ev T
__ZN6webrtc14FilterAnalyzerD2Ev T
__ZN6webrtc14HighPassFilter5ResetEm T
__ZN6webrtc14HighPassFilter5ResetEv T
__ZN6webrtc14HighPassFilter7ProcessEPNS_11AudioBufferEb T
__ZN6webrtc14HighPassFilter7ProcessEPNSt3__16vectorINS2_IfNS1_9allocatorIfEEEENS3_IS5_EEEE T
__ZN6webrtc14HighPassFilterC1Eim T
__ZN6webrtc14HighPassFilterC2Eim T
__ZN6webrtc14HighPassFilterD1Ev T
__ZN6webrtc14HighPassFilterD2Ev T
__ZN6webrtc14NoiseEstimator10PostUpdateEN3rtc9ArrayViewIKfLln4711EEENS2_IS3_Ll129EEE T
__ZN6webrtc14NoiseEstimator15PrepareAnalysisEv T
__ZN6webrtc14NoiseEstimator9PreUpdateEiN3rtc9ArrayViewIKfLl129EEEf T
__ZN6webrtc14NoiseEstimatorC1ERKNS_17SuppressionParamsE T
__ZN6webrtc14NoiseEstimatorC2ERKNS_17SuppressionParamsE T
__ZN6webrtc14PoleZeroFilter6CreateEPKfmS2_m T
__ZN6webrtc14PoleZeroFilter6FilterEPKsmPf T
__ZN6webrtc14PoleZeroFilterC1EPKfmS2_m T
__ZN6webrtc14PoleZeroFilterC2EPKfmS2_m T
__ZN6webrtc14SpectrumBufferC1Emm T
__ZN6webrtc14SpectrumBufferC2Emm T
__ZN6webrtc14SpectrumBufferD1Ev T
__ZN6webrtc14SpectrumBufferD2Ev T
__ZN6webrtc14ValidAlignmentEm T
__ZN6webrtc14WebRtcAgc_FreeEPv T
__ZN6webrtc14WebRtcAgc_InitEPviisj T
__ZN6webrtc15AudioProcessing20kNativeSampleRatesHzE S
__ZN6webrtc15FastApproxLog2fEf T
__ZN6webrtc15FloatS16ToFloatEPKfmPf T
__ZN6webrtc15FloatToFloatS16EPKfmPf T
__ZN6webrtc15GainControlImpl10InitializeEmi T
__ZN6webrtc15GainControlImpl14enable_limiterEb T
__ZN6webrtc15GainControlImpl17instance_counter_E S
__ZN6webrtc15GainControlImpl18ProcessRenderAudioEN3rtc9ArrayViewIKsLln4711EEE T
__ZN6webrtc15GainControlImpl19AnalyzeCaptureAudioERKNS_11AudioBufferE T
__ZN6webrtc15GainControlImpl19ProcessCaptureAudioEPNS_11AudioBufferEb T
__ZN6webrtc15GainControlImpl21PackRenderAudioBufferERKNS_11AudioBufferEPNSt3__16vectorIsNS4_9allocatorIsEEEE T
__ZN6webrtc15GainControlImpl21set_target_level_dbfsEi T
__ZN6webrtc15GainControlImpl23set_analog_level_limitsEii T
__ZN6webrtc15GainControlImpl23set_compression_gain_dbEi T
__ZN6webrtc15GainControlImpl23set_stream_analog_levelEi T
__ZN6webrtc15GainControlImpl8set_modeENS_11GainControl4ModeE T
__ZN6webrtc15GainControlImpl9ConfigureEv T
__ZN6webrtc15GainControlImplC1Ev T
__ZN6webrtc15GainControlImplC2Ev T
__ZN6webrtc15GainControlImplD0Ev T
__ZN6webrtc15GainControlImplD1Ev T
__ZN6webrtc15GainControlImplD2Ev T
__ZN6webrtc15GainController214SetFixedGainDbEf T
__ZN6webrtc15GainController215instance_count_E S
__ZN6webrtc15GainController220SetCaptureOutputUsedEb T
__ZN6webrtc15GainController27AnalyzeEiRKNS_11AudioBufferE T
__ZN6webrtc15GainController27ProcessENSt3__18optionalIfEEbPNS_11AudioBufferE T
__ZN6webrtc15GainController28ValidateERKNS_15AudioProcessing6Config15GainController2E T
__ZN6webrtc15GainController2C1ERKNS_15AudioProcessing6Config15GainController2ERKNS_21InputVolumeController6ConfigEiib T
__ZN6webrtc15GainController2C2ERKNS_15AudioProcessing6Config15GainController2ERKNS_21InputVolumeController6ConfigEiib T
__ZN6webrtc15GainController2D1Ev T
__ZN6webrtc15GainController2D2Ev T
__ZN6webrtc15Linear2LoudnessEd T
__ZN6webrtc15NoiseSuppressor12ChannelStateC1ERKNS_17SuppressionParamsEm T
__ZN6webrtc15NoiseSuppressor12ChannelStateC2ERKNS_17SuppressionParamsEm T
__ZN6webrtc15NoiseSuppressor7AnalyzeERKNS_11AudioBufferE T
__ZN6webrtc15NoiseSuppressor7ProcessEPNS_11AudioBufferE T
__ZN6webrtc15NoiseSuppressorC1ERKNS_8NsConfigEmm T
__ZN6webrtc15NoiseSuppressorC2ERKNS_8NsConfigEmm T
__ZN6webrtc15ParseFieldTrialESt16initializer_listIPNS_28FieldTrialParameterInterfaceEENSt3__117basic_string_viewIcNS4_11char_traitsIcEEEE T
__ZN6webrtc15SplittingFilter16TwoBandsAnalysisEPKNS_13ChannelBufferIfEEPS2_ T
__ZN6webrtc15SplittingFilter17TwoBandsSynthesisEPKNS_13ChannelBufferIfEEPS2_ T
__ZN6webrtc15SplittingFilter18ThreeBandsAnalysisEPKNS_13ChannelBufferIfEEPS2_ T
__ZN6webrtc15SplittingFilter19ThreeBandsSynthesisEPKNS_13ChannelBufferIfEEPS2_ T
__ZN6webrtc15SplittingFilter8AnalysisEPKNS_13ChannelBufferIfEEPS2_ T
__ZN6webrtc15SplittingFilter9SynthesisEPKNS_13ChannelBufferIfEEPS2_ T
__ZN6webrtc15SplittingFilterC1Emmm T
__ZN6webrtc15SplittingFilterC2Emmm T
__ZN6webrtc15SplittingFilterD1Ev T
__ZN6webrtc15SplittingFilterD2Ev T
__ZN6webrtc15SuppressionGain13LowerBandGainEbRKNS_8AecStateEN3rtc9ArrayViewIKNSt3__15arrayIfLm65EEELln4711EEESA_SA_bPS8_ T
__ZN6webrtc15SuppressionGain14GainParametersC1EiiRKNS_20EchoCanceller3Config10Suppressor6TuningE T
__ZN6webrtc15SuppressionGain14GainParametersC2EiiRKNS_20EchoCanceller3Config10Suppressor6TuningE T
__ZN6webrtc15SuppressionGain15SetInitialStateEb T
__ZN6webrtc15SuppressionGain15instance_count_E S
__ZN6webrtc15SuppressionGain22LowNoiseRenderDetector6DetectERKNS_5BlockE T
__ZN6webrtc15SuppressionGain7GetGainEN3rtc9ArrayViewIKNSt3__15arrayIfLm65EEELln4711EEES7_S7_S7_S7_RKNS_20RenderSignalAnalyzerERKNS_8AecStateERKNS_5BlockEbPfPS5_ T
__ZN6webrtc15SuppressionGainC1ERKNS_20EchoCanceller3ConfigENS_16Aec3OptimizationEim T
__ZN6webrtc15SuppressionGainC2ERKNS_20EchoCanceller3ConfigENS_16Aec3OptimizationEim T
__ZN6webrtc15SuppressionGainD1Ev T
__ZN6webrtc15SuppressionGainD2Ev T
__ZN6webrtc15TransparentMode6CreateERKNS_20EchoCanceller3ConfigE T
__ZN6webrtc16AgcManagerDirect10InitializeEv T
__ZN6webrtc16AgcManagerDirect17AnalyzePreProcessERKNS_11AudioBufferE T
__ZN6webrtc16AgcManagerDirect17instance_counter_E S
__ZN6webrtc16AgcManagerDirect22AggregateChannelLevelsEv T
__ZN6webrtc16AgcManagerDirect23set_stream_analog_levelEi T
__ZN6webrtc16AgcManagerDirect24GetDigitalComressionGainEv T
__ZN6webrtc16AgcManagerDirect29HandleCaptureOutputUsedChangeEb T
__ZN6webrtc16AgcManagerDirect7ProcessERKNS_11AudioBufferE T
__ZN6webrtc16AgcManagerDirect7ProcessERKNS_11AudioBufferENSt3__18optionalIfEES6_ T
__ZN6webrtc16AgcManagerDirectC1ERKNS_15AudioProcessing6Config15GainController120AnalogGainControllerEPNS_3AgcE T
__ZN6webrtc16AgcManagerDirectC1EiRKNS_15AudioProcessing6Config15GainController120AnalogGainControllerE T
__ZN6webrtc16AgcManagerDirectC2ERKNS_15AudioProcessing6Config15GainController120AnalogGainControllerEPNS_3AgcE T
__ZN6webrtc16AgcManagerDirectC2EiRKNS_15AudioProcessing6Config15GainController120AnalogGainControllerE T
__ZN6webrtc16AgcManagerDirectD1Ev T
__ZN6webrtc16AgcManagerDirectD2Ev T
__ZN6webrtc16BlockDelayBuffer11DelaySignalEPNS_11AudioBufferE T
__ZN6webrtc16BlockDelayBufferC1Emmmm T
__ZN6webrtc16BlockDelayBufferC2Emmmm T
__ZN6webrtc16BlockDelayBufferD1Ev T
__ZN6webrtc16BlockDelayBufferD2Ev T
__ZN6webrtc16CustomProcessing17SetRuntimeSettingENS_15AudioProcessing14RuntimeSettingE T
__ZN6webrtc16DenormalDisabler11IsSupportedEv T
__ZN6webrtc16DenormalDisablerC1Eb T
__ZN6webrtc16DenormalDisablerC1Ev T
__ZN6webrtc16DenormalDisablerC2Eb T
__ZN6webrtc16DenormalDisablerC2Ev T
__ZN6webrtc16DenormalDisablerD1Ev T
__ZN6webrtc16DenormalDisablerD2Ev T
__ZN6webrtc16ExpApproximationEN3rtc9ArrayViewIKfLln4711EEENS1_IfLln4711EEE T
__ZN6webrtc16ExpApproximationEf T
__ZN6webrtc16LogApproximationEN3rtc9ArrayViewIKfLln4711EEENS1_IfLln4711EEE T
__ZN6webrtc16LogApproximationEf T
__ZN6webrtc16PowApproximationEff T
__ZN6webrtc16PriorSignalModelC1Ef T
__ZN6webrtc16PriorSignalModelC2Ef T
__ZN6webrtc16SetupEventTracerEPFPKhPKcEPFvcS1_S3_yiPS3_S1_PKyhE T
__ZN6webrtc16SubtractorOutput14ComputeMetricsEN3rtc9ArrayViewIKfLln4711EEE T
__ZN6webrtc16SubtractorOutput5ResetEv T
__ZN6webrtc16SubtractorOutputC1Ev T
__ZN6webrtc16SubtractorOutputC2Ev T
__ZN6webrtc16SubtractorOutputD1Ev T
__ZN6webrtc16SubtractorOutputD2Ev T
__ZN6webrtc16VectorFloatFrame16float_frame_viewEv T
__ZN6webrtc16VectorFloatFrameC1Eiif T
__ZN6webrtc16VectorFloatFrameC2Eiif T
__ZN6webrtc16VectorFloatFrameD1Ev T
__ZN6webrtc16VectorFloatFrameD2Ev T
__ZN6webrtc16WebRtcAgc_AddMicEPvPKPsmm T
__ZN6webrtc16WebRtcAgc_CreateEv T
__ZN6webrtc16WebRtc_lookaheadEPv T
__ZN6webrtc17AdaptiveFirFilter10UpdateSizeEv T
__ZN6webrtc17AdaptiveFirFilter11ScaleFilterEf T
__ZN6webrtc17AdaptiveFirFilter17SetSizePartitionsEmb T
__ZN6webrtc17AdaptiveFirFilter18AdaptAndUpdateSizeERKNS_12RenderBufferERKNS_7FftDataE T
__ZN6webrtc17AdaptiveFirFilter20HandleEchoPathChangeEv T
__ZN6webrtc17AdaptiveFirFilter33ConstrainAndUpdateImpulseResponseEPNSt3__16vectorIfNS1_9allocatorIfEEEE T
__ZN6webrtc17AdaptiveFirFilter5AdaptERKNS_12RenderBufferERKNS_7FftDataE T
__ZN6webrtc17AdaptiveFirFilter5AdaptERKNS_12RenderBufferERKNS_7FftDataEPNSt3__16vectorIfNS7_9allocatorIfEEEE T
__ZN6webrtc17AdaptiveFirFilter9ConstrainEv T
__ZN6webrtc17AdaptiveFirFilter9SetFilterEmRKNSt3__16vectorINS2_INS_7FftDataENS1_9allocatorIS3_EEEENS4_IS6_EEEE T
__ZN6webrtc17AdaptiveFirFilterC1EmmmmNS_16Aec3OptimizationEPNS_13ApmDataDumperE T
__ZN6webrtc17AdaptiveFirFilterC2EmmmmNS_16Aec3OptimizationEPNS_13ApmDataDumperE T
__ZN6webrtc17AdaptiveFirFilterD1Ev T
__ZN6webrtc17AdaptiveFirFilterD2Ev T
__ZN6webrtc17InternalAPMConfigC1EOS0_ T
__ZN6webrtc17InternalAPMConfigC1ERKS0_ T
__ZN6webrtc17InternalAPMConfigC1Ev T
__ZN6webrtc17InternalAPMConfigC2EOS0_ T
__ZN6webrtc17InternalAPMConfigC2ERKS0_ T
__ZN6webrtc17InternalAPMConfigC2Ev T
__ZN6webrtc17InternalAPMConfigaSERKS0_ T
__ZN6webrtc17LoudnessHistogram10UpdateHistEii T
__ZN6webrtc17LoudnessHistogram11GetBinIndexEd T
__ZN6webrtc17LoudnessHistogram15RemoveTransientEv T
__ZN6webrtc17LoudnessHistogram26InsertNewestEntryAndUpdateEii T
__ZN6webrtc17LoudnessHistogram26RemoveOldestEntryAndUpdateEv T
__ZN6webrtc17LoudnessHistogram5ResetEv T
__ZN6webrtc17LoudnessHistogram6CreateEi T
__ZN6webrtc17LoudnessHistogram6CreateEv T
__ZN6webrtc17LoudnessHistogram6UpdateEdd T
__ZN6webrtc17LoudnessHistogramC1Ei T
__ZN6webrtc17LoudnessHistogramC1Ev T
__ZN6webrtc17LoudnessHistogramC2Ei T
__ZN6webrtc17LoudnessHistogramC2Ev T
__ZN6webrtc17LoudnessHistogramD1Ev T
__ZN6webrtc17LoudnessHistogramD2Ev T
__ZN6webrtc17Pow2ApproximationEf T
__ZN6webrtc17ProcessAudioFrameEPNS_15AudioProcessingEPNS_10AudioFrameE T
__ZN6webrtc17PushSincResampler3RunEmPf T
__ZN6webrtc17PushSincResampler8ResampleEPKfmPfm T
__ZN6webrtc17PushSincResampler8ResampleEPKsmPsm T
__ZN6webrtc17PushSincResamplerC1Emm T
__ZN6webrtc17PushSincResamplerC2Emm T
__ZN6webrtc17PushSincResamplerD0Ev T
__ZN6webrtc17PushSincResamplerD1Ev T
__ZN6webrtc17PushSincResamplerD2Ev T
__ZN6webrtc17RenderDelayBuffer6CreateERKNS_20EchoCanceller3ConfigEim T
__ZN6webrtc17SuppressionFilter9ApplyGainEN3rtc9ArrayViewIKNS_7FftDataELln4711EEES5_RKNSt3__15arrayIfLm65EEEfS5_PNS_5BlockE T
__ZN6webrtc17SuppressionFilterC1ENS_16Aec3OptimizationEim T
__ZN6webrtc17SuppressionFilterC2ENS_16Aec3OptimizationEim T
__ZN6webrtc17SuppressionFilterD1Ev T
__ZN6webrtc17SuppressionFilterD2Ev T
__ZN6webrtc17SuppressionParamsC1ENS_8NsConfig16SuppressionLevelE T
__ZN6webrtc17SuppressionParamsC2ENS_8NsConfig16SuppressionLevelE T
__ZN6webrtc17VadCircularBuffer11BufferLevelEv T
__ZN6webrtc17VadCircularBuffer15RemoveTransientEid T
__ZN6webrtc17VadCircularBuffer3SetEid T
__ZN6webrtc17VadCircularBuffer4MeanEv T
__ZN6webrtc17VadCircularBuffer5ResetEv T
__ZN6webrtc17VadCircularBuffer6CreateEi T
__ZN6webrtc17VadCircularBuffer6InsertEd T
__ZN6webrtc17VadCircularBufferC1Ei T
__ZN6webrtc17VadCircularBufferC2Ei T
__ZN6webrtc17VadCircularBufferD1Ev T
__ZN6webrtc17VadCircularBufferD2Ev T
__ZN6webrtc17WebRtcAgc_AnalyzeEPvPKPKsmmiPisPhS5_ T
__ZN6webrtc17WebRtcAgc_InitVadEPNS_6AgcVadE T
__ZN6webrtc17WebRtcAgc_ProcessEPKvPKiPKPKsmPKPs T
__ZN6webrtc17WebRtc_last_delayEPv T
__ZN6webrtc18AudioSamplesScaler7ProcessERNS_11AudioBufferE T
__ZN6webrtc18AudioSamplesScalerC1Ef T
__ZN6webrtc18AudioSamplesScalerC2Ef T
__ZN6webrtc18ClockdriftDetector6UpdateEi T
__ZN6webrtc18ClockdriftDetectorC1Ev T
__ZN6webrtc18ClockdriftDetectorC2Ev T
__ZN6webrtc18ClockdriftDetectorD1Ev T
__ZN6webrtc18ClockdriftDetectorD2Ev T
__ZN6webrtc18DetectOptimizationEv T
__ZN6webrtc18EchoRemoverMetrics12ResetMetricsEv T
__ZN6webrtc18EchoRemoverMetrics6UpdateERKNS_8AecStateERKNSt3__15arrayIfLm65EEES8_ T
__ZN6webrtc18EchoRemoverMetrics8DbMetric13UpdateInstantEf T
__ZN6webrtc18EchoRemoverMetrics8DbMetric6UpdateEf T
__ZN6webrtc18EchoRemoverMetrics8DbMetricC1Efff T
__ZN6webrtc18EchoRemoverMetrics8DbMetricC1Ev T
__ZN6webrtc18EchoRemoverMetrics8DbMetricC2Efff T
__ZN6webrtc18EchoRemoverMetrics8DbMetricC2Ev T
__ZN6webrtc18EchoRemoverMetricsC1Ev T
__ZN6webrtc18EchoRemoverMetricsC2Ev T
__ZN6webrtc18FieldTrialOptionalINSt3__112basic_stringIcNS1_11char_traitsIcEENS1_9allocatorIcEEEEE5ParseENS1_8optionalIS7_EE T
__ZN6webrtc18FieldTrialOptionalINSt3__112basic_stringIcNS1_11char_traitsIcEENS1_9allocatorIcEEEEEC1ENS1_17basic_string_viewIcS4_EE T
__ZN6webrtc18FieldTrialOptionalINSt3__112basic_stringIcNS1_11char_traitsIcEENS1_9allocatorIcEEEEEC1ENS1_17basic_string_viewIcS4_EENS1_8optionalIS7_EE T
__ZN6webrtc18FieldTrialOptionalINSt3__112basic_stringIcNS1_11char_traitsIcEENS1_9allocatorIcEEEEEC2ENS1_17basic_string_viewIcS4_EE T
__ZN6webrtc18FieldTrialOptionalINSt3__112basic_stringIcNS1_11char_traitsIcEENS1_9allocatorIcEEEEEC2ENS1_17basic_string_viewIcS4_EENS1_8optionalIS7_EE T
__ZN6webrtc18FieldTrialOptionalIbE5ParseENSt3__18optionalINS2_12basic_stringIcNS2_11char_traitsIcEENS2_9allocatorIcEEEEEE T
__ZN6webrtc18FieldTrialOptionalIbEC1ENSt3__117basic_string_viewIcNS2_11char_traitsIcEEEE T
__ZN6webrtc18FieldTrialOptionalIbEC1ENSt3__117basic_string_viewIcNS2_11char_traitsIcEEEENS2_8optionalIbEE T
__ZN6webrtc18FieldTrialOptionalIbEC2ENSt3__117basic_string_viewIcNS2_11char_traitsIcEEEE T
__ZN6webrtc18FieldTrialOptionalIbEC2ENSt3__117basic_string_viewIcNS2_11char_traitsIcEEEENS2_8optionalIbEE T
__ZN6webrtc18FieldTrialOptionalIdE5ParseENSt3__18optionalINS2_12basic_stringIcNS2_11char_traitsIcEENS2_9allocatorIcEEEEEE T
__ZN6webrtc18FieldTrialOptionalIdEC1ENSt3__117basic_string_viewIcNS2_11char_traitsIcEEEE T
__ZN6webrtc18FieldTrialOptionalIdEC1ENSt3__117basic_string_viewIcNS2_11char_traitsIcEEEENS2_8optionalIdEE T
__ZN6webrtc18FieldTrialOptionalIdEC2ENSt3__117basic_string_viewIcNS2_11char_traitsIcEEEE T
__ZN6webrtc18FieldTrialOptionalIdEC2ENSt3__117basic_string_viewIcNS2_11char_traitsIcEEEENS2_8optionalIdEE T
__ZN6webrtc18FieldTrialOptionalIiE5ParseENSt3__18optionalINS2_12basic_stringIcNS2_11char_traitsIcEENS2_9allocatorIcEEEEEE T
__ZN6webrtc18FieldTrialOptionalIiEC1ENSt3__117basic_string_viewIcNS2_11char_traitsIcEEEE T
__ZN6webrtc18FieldTrialOptionalIiEC1ENSt3__117basic_string_viewIcNS2_11char_traitsIcEEEENS2_8optionalIiEE T
__ZN6webrtc18FieldTrialOptionalIiEC2ENSt3__117basic_string_viewIcNS2_11char_traitsIcEEEE T
__ZN6webrtc18FieldTrialOptionalIiEC2ENSt3__117basic_string_viewIcNS2_11char_traitsIcEEEENS2_8optionalIiEE T
__ZN6webrtc18FieldTrialOptionalIjE5ParseENSt3__18optionalINS2_12basic_stringIcNS2_11char_traitsIcEENS2_9allocatorIcEEEEEE T
__ZN6webrtc18FieldTrialOptionalIjEC1ENSt3__117basic_string_viewIcNS2_11char_traitsIcEEEE T
__ZN6webrtc18FieldTrialOptionalIjEC1ENSt3__117basic_string_viewIcNS2_11char_traitsIcEEEENS2_8optionalIjEE T
__ZN6webrtc18FieldTrialOptionalIjEC2ENSt3__117basic_string_viewIcNS2_11char_traitsIcEEEE T
__ZN6webrtc18FieldTrialOptionalIjEC2ENSt3__117basic_string_viewIcNS2_11char_traitsIcEEEENS2_8optionalIjEE T
__ZN6webrtc18GuessChannelLayoutEi T
__ZN6webrtc18LimiterDbGainCurve18compression_ratio_E S
__ZN6webrtc18LimiterDbGainCurve19knee_smoothness_db_E S
__ZN6webrtc18LimiterDbGainCurve19max_input_level_db_E S
__ZN6webrtc18LimiterDbGainCurveC1Ev T
__ZN6webrtc18LimiterDbGainCurveC2Ev T
__ZN6webrtc18WebRtcAecm_ControlEPNS_8AecmCoreEii T
__ZN6webrtc18WebRtcAgc_ExpCurveEsPs T
__ZN6webrtc18WebRtcAgc_ZeroCtrlEPNS_9LegacyAgcEPiS2_ T
__ZN6webrtc19AudioProcessingImpl10InitializeERKNS_16ProcessingConfigE T
__ZN6webrtc19AudioProcessingImpl10InitializeEv T
__ZN6webrtc19AudioProcessingImpl11ApplyConfigERKNS_15AudioProcessing6ConfigE T
__ZN6webrtc19AudioProcessingImpl13AttachAecDumpENSt3__110unique_ptrINS_7AecDumpENS1_14default_deleteIS3_EEEE T
__ZN6webrtc19AudioProcessingImpl13DetachAecDumpEv T
__ZN6webrtc19AudioProcessingImpl13ProcessStreamEPKPKfRKNS_12StreamConfigES7_PKPf T
__ZN6webrtc19AudioProcessingImpl13ProcessStreamEPKsRKNS_12StreamConfigES5_Ps T
__ZN6webrtc19AudioProcessingImpl14ApmRenderStateC1Ev T
__ZN6webrtc19AudioProcessingImpl14ApmRenderStateC2Ev T
__ZN6webrtc19AudioProcessingImpl14ApmRenderStateD1Ev T
__ZN6webrtc19AudioProcessingImpl14ApmRenderStateD2Ev T
__ZN6webrtc19AudioProcessingImpl15ApmCaptureStateC1Ev T
__ZN6webrtc19AudioProcessingImpl15ApmCaptureStateC2Ev T
__ZN6webrtc19AudioProcessingImpl15ApmCaptureStateD1Ev T
__ZN6webrtc19AudioProcessingImpl15ApmCaptureStateD2Ev T
__ZN6webrtc19AudioProcessingImpl15SubmoduleStates6UpdateEbbbbbbb T
__ZN6webrtc19AudioProcessingImpl15SubmoduleStatesC1Ebbb T
__ZN6webrtc19AudioProcessingImpl15SubmoduleStatesC2Ebbb T
__ZN6webrtc19AudioProcessingImpl15instance_count_E S
__ZN6webrtc19AudioProcessingImpl16ApmStatsReporter13GetStatisticsEv T
__ZN6webrtc19AudioProcessingImpl16ApmStatsReporter16UpdateStatisticsERKNS_20AudioProcessingStatsE T
__ZN6webrtc19AudioProcessingImpl16ApmStatsReporterC1Ev T
__ZN6webrtc19AudioProcessingImpl16ApmStatsReporterC2Ev T
__ZN6webrtc19AudioProcessingImpl16ApmStatsReporterD1Ev T
__ZN6webrtc19AudioProcessingImpl16ApmStatsReporterD2Ev T
__ZN6webrtc19AudioProcessingImpl16InitializeLockedERKNS_16ProcessingConfigE T
__ZN6webrtc19AudioProcessingImpl16InitializeLockedEv T
__ZN6webrtc19AudioProcessingImpl17SetRuntimeSettingENS_15AudioProcessing14RuntimeSettingE T
__ZN6webrtc19AudioProcessingImpl18InitializeAnalyzerEv T
__ZN6webrtc19AudioProcessingImpl18PostRuntimeSettingENS_15AudioProcessing14RuntimeSettingE T
__ZN6webrtc19AudioProcessingImpl19AllocateRenderQueueEv T
__ZN6webrtc19AudioProcessingImpl19set_stream_delay_msEi T
__ZN6webrtc19AudioProcessingImpl20AnalyzeReverseStreamEPKPKfRKNS_12StreamConfigE T
__ZN6webrtc19AudioProcessingImpl20ProcessReverseStreamEPKPKfRKNS_12StreamConfigES7_PKPf T
__ZN6webrtc19AudioProcessingImpl20ProcessReverseStreamEPKsRKNS_12StreamConfigES5_Ps T
__ZN6webrtc19AudioProcessingImpl21MaybeInitializeRenderERKNS_12StreamConfigES3_ T
__ZN6webrtc19AudioProcessingImpl22CreateAndAttachAecDumpENSt3__117basic_string_viewIcNS1_11char_traitsIcEEEExPNS_13TaskQueueBaseE T
__ZN6webrtc19AudioProcessingImpl22CreateAndAttachAecDumpEP7__sFILExPNS_13TaskQueueBaseE T
__ZN6webrtc19AudioProcessingImpl22EmptyQueuedRenderAudioEv T
__ZN6webrtc19AudioProcessingImpl22InitializePreProcessorEv T
__ZN6webrtc19AudioProcessingImpl22MaybeInitializeCaptureERKNS_12StreamConfigES3_ T
__ZN6webrtc19AudioProcessingImpl22QueueBandedRenderAudioEPNS_11AudioBufferE T
__ZN6webrtc19AudioProcessingImpl22RuntimeSettingEnqueuer7EnqueueENS_15AudioProcessing14RuntimeSettingE T
__ZN6webrtc19AudioProcessingImpl22RuntimeSettingEnqueuerC1EPNS_9SwapQueueINS_15AudioProcessing14RuntimeSettingENS_21SwapQueueItemVerifierIS4_XadL_ZNS_8internal33NoopSwapQueueItemVerifierFunctionIS4_EEbRKT_EEEEEE T
__ZN6webrtc19AudioProcessingImpl22RuntimeSettingEnqueuerC2EPNS_9SwapQueueINS_15AudioProcessing14RuntimeSettingENS_21SwapQueueItemVerifierIS4_XadL_ZNS_8internal33NoopSwapQueueItemVerifierFunctionIS4_EEbRKT_EEEEEE T
__ZN6webrtc19AudioProcessingImpl22RuntimeSettingEnqueuerD1Ev T
__ZN6webrtc19AudioProcessingImpl22RuntimeSettingEnqueuerD2Ev T
__ZN6webrtc19AudioProcessingImpl22set_stream_key_pressedEb T
__ZN6webrtc19AudioProcessingImpl23InitializePostProcessorEv T
__ZN6webrtc19AudioProcessingImpl23set_stream_analog_levelEi T
__ZN6webrtc19AudioProcessingImpl24InitializeEchoControllerEv T
__ZN6webrtc19AudioProcessingImpl24InitializeHighPassFilterEb T
__ZN6webrtc19AudioProcessingImpl24set_output_will_be_mutedEb T
__ZN6webrtc19AudioProcessingImpl25InitializeGainController1Ev T
__ZN6webrtc19AudioProcessingImpl25InitializeGainController2Ev T
__ZN6webrtc19AudioProcessingImpl25InitializeNoiseSuppressorEv T
__ZN6webrtc19AudioProcessingImpl25ProcessRenderStreamLockedEv T
__ZN6webrtc19AudioProcessingImpl25QueueNonbandedRenderAudioEPNS_11AudioBufferE T
__ZN6webrtc19AudioProcessingImpl25WriteAecDumpConfigMessageEb T
__ZN6webrtc19AudioProcessingImpl26AnalyzeReverseStreamLockedEPKPKfRKNS_12StreamConfigES7_ T
__ZN6webrtc19AudioProcessingImpl26ProcessCaptureStreamLockedEv T
__ZN6webrtc19AudioProcessingImpl26RecordAudioProcessingStateEv T
__ZN6webrtc19AudioProcessingImpl27HandleRenderRuntimeSettingsEv T
__ZN6webrtc19AudioProcessingImpl27UpdateActiveSubmoduleStatesEv T
__ZN6webrtc19AudioProcessingImpl28EmptyQueuedRenderAudioLockedEv T
__ZN6webrtc19AudioProcessingImpl28HandleCaptureRuntimeSettingsEv T
__ZN6webrtc19AudioProcessingImpl28RecordProcessedCaptureStreamEPKPKf T
__ZN6webrtc19AudioProcessingImpl28RecordProcessedCaptureStreamEPKsRKNS_12StreamConfigE T
__ZN6webrtc19AudioProcessingImpl30HandleCaptureOutputUsedSettingEb T
__ZN6webrtc19AudioProcessingImpl30InitializeResidualEchoDetectorEv T
__ZN6webrtc19AudioProcessingImpl30RecordUnprocessedCaptureStreamEPKPKf T
__ZN6webrtc19AudioProcessingImpl30RecordUnprocessedCaptureStreamEPKsRKNS_12StreamConfigE T
__ZN6webrtc19AudioProcessingImpl30set_stream_analog_level_lockedEi T
__ZN6webrtc19AudioProcessingImpl31InitializeCaptureLevelsAdjusterEv T
__ZN6webrtc19AudioProcessingImpl34UpdateRecommendedInputVolumeLockedEv T
__ZN6webrtc19AudioProcessingImpl42HandleOverrunInCaptureRuntimeSettingsQueueEv T
__ZN6webrtc19AudioProcessingImplC2ERKNS_15AudioProcessing6ConfigENSt3__110unique_ptrINS_16CustomProcessingENS5_14default_deleteIS7_EEEESA_NS6_INS_18EchoControlFactoryENS8_ISB_EEEENS_13scoped_refptrINS_12EchoDetectorEEENS6_INS_19CustomAudioAnalyzerENS8_ISH_EEEE T
__ZN6webrtc19AudioProcessingImplC2Ev T
__ZN6webrtc19AudioProcessingImplD0Ev T
__ZN6webrtc19AudioProcessingImplD1Ev T
__ZN6webrtc19AudioProcessingImplD2Ev T
__ZN6webrtc19EchoPathVariabilityC1EbNS0_15DelayAdjustmentEb T
__ZN6webrtc19EchoPathVariabilityC2EbNS0_15DelayAdjustmentEb T
__ZN6webrtc19FieldTrialParameterINSt3__112basic_stringIcNS1_11char_traitsIcEENS1_9allocatorIcEEEEE10SetForTestES7_ T
__ZN6webrtc19FieldTrialParameterINSt3__112basic_stringIcNS1_11char_traitsIcEENS1_9allocatorIcEEEEE5ParseENS1_8optionalIS7_EE T
__ZN6webrtc19FieldTrialParameterINSt3__112basic_stringIcNS1_11char_traitsIcEENS1_9allocatorIcEEEEEC1ENS1_17basic_string_viewIcS4_EES7_ T
__ZN6webrtc19FieldTrialParameterINSt3__112basic_stringIcNS1_11char_traitsIcEENS1_9allocatorIcEEEEEC2ENS1_17basic_string_viewIcS4_EES7_ T
__ZN6webrtc19FieldTrialParameterIbE10SetForTestEb T
__ZN6webrtc19FieldTrialParameterIbE5ParseENSt3__18optionalINS2_12basic_stringIcNS2_11char_traitsIcEENS2_9allocatorIcEEEEEE T
__ZN6webrtc19FieldTrialParameterIbEC1ENSt3__117basic_string_viewIcNS2_11char_traitsIcEEEEb T
__ZN6webrtc19FieldTrialParameterIbEC2ENSt3__117basic_string_viewIcNS2_11char_traitsIcEEEEb T
__ZN6webrtc19FieldTrialParameterIdE10SetForTestEd T
__ZN6webrtc19FieldTrialParameterIdE5ParseENSt3__18optionalINS2_12basic_stringIcNS2_11char_traitsIcEENS2_9allocatorIcEEEEEE T
__ZN6webrtc19FieldTrialParameterIdEC1ENSt3__117basic_string_viewIcNS2_11char_traitsIcEEEEd T
__ZN6webrtc19FieldTrialParameterIdEC2ENSt3__117basic_string_viewIcNS2_11char_traitsIcEEEEd T
__ZN6webrtc19FieldTrialParameterIiE10SetForTestEi T
__ZN6webrtc19FieldTrialParameterIiE5ParseENSt3__18optionalINS2_12basic_stringIcNS2_11char_traitsIcEENS2_9allocatorIcEEEEEE T
__ZN6webrtc19FieldTrialParameterIiEC1ENSt3__117basic_string_viewIcNS2_11char_traitsIcEEEEi T
__ZN6webrtc19FieldTrialParameterIiEC2ENSt3__117basic_string_viewIcNS2_11char_traitsIcEEEEi T
__ZN6webrtc19FieldTrialParameterIjE10SetForTestEj T
__ZN6webrtc19FieldTrialParameterIjE5ParseENSt3__18optionalINS2_12basic_stringIcNS2_11char_traitsIcEENS2_9allocatorIcEEEEEE T
__ZN6webrtc19FieldTrialParameterIjEC1ENSt3__117basic_string_viewIcNS2_11char_traitsIcEEEEj T
__ZN6webrtc19FieldTrialParameterIjEC2ENSt3__117basic_string_viewIcNS2_11char_traitsIcEEEEj T
__ZN6webrtc19ParseTypedParameterINSt3__112basic_stringIcNS1_11char_traitsIcEENS1_9allocatorIcEEEEEENS1_8optionalIT_EENS1_17basic_string_viewIcS4_EE T
__ZN6webrtc19ParseTypedParameterINSt3__18optionalIbEEEENS2_IT_EENS1_17basic_string_viewIcNS1_11char_traitsIcEEEE T
__ZN6webrtc19ParseTypedParameterINSt3__18optionalIdEEEENS2_IT_EENS1_17basic_string_viewIcNS1_11char_traitsIcEEEE T
__ZN6webrtc19ParseTypedParameterINSt3__18optionalIiEEEENS2_IT_EENS1_17basic_string_viewIcNS1_11char_traitsIcEEEE T
__ZN6webrtc19ParseTypedParameterINSt3__18optionalIjEEEENS2_IT_EENS1_17basic_string_viewIcNS1_11char_traitsIcEEEE T
__ZN6webrtc19ParseTypedParameterIbEENSt3__18optionalIT_EENS1_17basic_string_viewIcNS1_11char_traitsIcEEEE T
__ZN6webrtc19ParseTypedParameterIdEENSt3__18optionalIT_EENS1_17basic_string_viewIcNS1_11char_traitsIcEEEE T
__ZN6webrtc19ParseTypedParameterIiEENSt3__18optionalIT_EENS1_17basic_string_viewIcNS1_11char_traitsIcEEEE T
__ZN6webrtc19ParseTypedParameterIjEENSt3__18optionalIT_EENS1_17basic_string_viewIcNS1_11char_traitsIcEEEE T
__ZN6webrtc19ThreeBandFilterBank8AnalysisEN3rtc9ArrayViewIKfLl480EEENS2_IKNS2_IfLln4711EEELl3EEE T
__ZN6webrtc19ThreeBandFilterBank9SynthesisEN3rtc9ArrayViewIKNS2_IfLln4711EEELl3EEENS2_IfLl480EEE T
__ZN6webrtc19ThreeBandFilterBankC1Ev T
__ZN6webrtc19ThreeBandFilterBankC2Ev T
__ZN6webrtc19ThreeBandFilterBankD1Ev T
__ZN6webrtc19ThreeBandFilterBankD2Ev T
__ZN6webrtc19WebRtcAecm_AsymFiltEssss T
__ZN6webrtc19WebRtcAecm_FreeCoreEPNS_8AecmCoreE T
__ZN6webrtc19WebRtcAecm_InitCoreEPNS_8AecmCoreEi T
__ZN6webrtc19WebRtcAgc_AddFarendEPvPKsm T
__ZN6webrtc19WebRtc_history_sizeEPKv T
__ZN6webrtc20ApiCallJitterMetrics16ReportRenderCallEv T
__ZN6webrtc20ApiCallJitterMetrics17ReportCaptureCallEv T
__ZN6webrtc20ApiCallJitterMetrics5ResetEv T
__ZN6webrtc20ApiCallJitterMetrics6Jitter5ResetEv T
__ZN6webrtc20ApiCallJitterMetrics6Jitter6UpdateEi T
__ZN6webrtc20ApiCallJitterMetrics6JitterC1Ev T
__ZN6webrtc20ApiCallJitterMetrics6JitterC2Ev T
__ZN6webrtc20AudioProcessingStatsC1ERKS0_ T
__ZN6webrtc20AudioProcessingStatsC1Ev T
__ZN6webrtc20AudioProcessingStatsC2ERKS0_ T
__ZN6webrtc20AudioProcessingStatsC2Ev T
__ZN6webrtc20AudioProcessingStatsD1Ev T
__ZN6webrtc20AudioProcessingStatsD2Ev T
__ZN6webrtc20CascadedBiQuadFilter11ApplyBiQuadEN3rtc9ArrayViewIKfLln4711EEENS2_IfLln4711EEEPNS0_6BiQuadE T
__ZN6webrtc20CascadedBiQuadFilter11BiQuadParamC1ENSt3__17complexIfEES4_fb T
__ZN6webrtc20CascadedBiQuadFilter11BiQuadParamC1ERKS1_ T
__ZN6webrtc20CascadedBiQuadFilter11BiQuadParamC2ENSt3__17complexIfEES4_fb T
__ZN6webrtc20CascadedBiQuadFilter11BiQuadParamC2ERKS1_ T
__ZN6webrtc20CascadedBiQuadFilter5ResetEv T
__ZN6webrtc20CascadedBiQuadFilter6BiQuad5ResetEv T
__ZN6webrtc20CascadedBiQuadFilter6BiQuadC1ERKNS0_11BiQuadParamE T
__ZN6webrtc20CascadedBiQuadFilter6BiQuadC2ERKNS0_11BiQuadParamE T
__ZN6webrtc20CascadedBiQuadFilter7ProcessEN3rtc9ArrayViewIKfLln4711EEENS2_IfLln4711EEE T
__ZN6webrtc20CascadedBiQuadFilter7ProcessEN3rtc9ArrayViewIfLln4711EEE T
__ZN6webrtc20CascadedBiQuadFilterC1ERKNS0_18BiQuadCoefficientsEm T
__ZN6webrtc20CascadedBiQuadFilterC1ERKNSt3__16vectorINS0_11BiQuadParamENS1_9allocatorIS3_EEEE T
__ZN6webrtc20CascadedBiQuadFilterC2ERKNS0_18BiQuadCoefficientsEm T
__ZN6webrtc20CascadedBiQuadFilterC2ERKNSt3__16vectorINS0_11BiQuadParamENS1_9allocatorIS3_EEEE T
__ZN6webrtc20CascadedBiQuadFilterD1Ev T
__ZN6webrtc20CascadedBiQuadFilterD2Ev T
__ZN6webrtc20EchoCanceller3Config10Suppressor17MaskingThresholdsC1ERKS2_ T
__ZN6webrtc20EchoCanceller3Config10Suppressor17MaskingThresholdsC1Efff T
__ZN6webrtc20EchoCanceller3Config10Suppressor17MaskingThresholdsC2ERKS2_ T
__ZN6webrtc20EchoCanceller3Config10Suppressor17MaskingThresholdsC2Efff T
__ZN6webrtc20EchoCanceller3Config10Suppressor17MaskingThresholdsaSERKS2_ T
__ZN6webrtc20EchoCanceller3Config10Suppressor6TuningC1ENS1_17MaskingThresholdsES3_ff T
__ZN6webrtc20EchoCanceller3Config10Suppressor6TuningC1ERKS2_ T
__ZN6webrtc20EchoCanceller3Config10Suppressor6TuningC2ENS1_17MaskingThresholdsES3_ff T
__ZN6webrtc20EchoCanceller3Config10Suppressor6TuningC2ERKS2_ T
__ZN6webrtc20EchoCanceller3Config10Suppressor6TuningaSERKS2_ T
__ZN6webrtc20EchoCanceller3Config10SuppressorC1ERKS1_ T
__ZN6webrtc20EchoCanceller3Config10SuppressorC1Ev T
__ZN6webrtc20EchoCanceller3Config10SuppressorC2ERKS1_ T
__ZN6webrtc20EchoCanceller3Config10SuppressorC2Ev T
__ZN6webrtc20EchoCanceller3Config10SuppressoraSERKS1_ T
__ZN6webrtc20EchoCanceller3Config5DelayC1ERKS1_ T
__ZN6webrtc20EchoCanceller3Config5DelayC1Ev T
__ZN6webrtc20EchoCanceller3Config5DelayC2ERKS1_ T
__ZN6webrtc20EchoCanceller3Config5DelayC2Ev T
__ZN6webrtc20EchoCanceller3Config5DelayaSERKS1_ T
__ZN6webrtc20EchoCanceller3Config8ValidateEPS0_ T
__ZN6webrtc20EchoCanceller3Config9EchoModelC1ERKS1_ T
__ZN6webrtc20EchoCanceller3Config9EchoModelC1Ev T
__ZN6webrtc20EchoCanceller3Config9EchoModelC2ERKS1_ T
__ZN6webrtc20EchoCanceller3Config9EchoModelC2Ev T
__ZN6webrtc20EchoCanceller3Config9EchoModelaSERKS1_ T
__ZN6webrtc20EchoCanceller3ConfigC1ERKS0_ T
__ZN6webrtc20EchoCanceller3ConfigC1Ev T
__ZN6webrtc20EchoCanceller3ConfigC2ERKS0_ T
__ZN6webrtc20EchoCanceller3ConfigC2Ev T
__ZN6webrtc20EchoCanceller3ConfigaSERKS0_ T
__ZN6webrtc20RenderSignalAnalyzer6UpdateERKNS_12RenderBufferERKNSt3__18optionalImEE T
__ZN6webrtc20RenderSignalAnalyzerC1ERKNS_20EchoCanceller3ConfigE T
__ZN6webrtc20RenderSignalAnalyzerC2ERKNS_20EchoCanceller3ConfigE T
__ZN6webrtc20RenderSignalAnalyzerD1Ev T
__ZN6webrtc20RenderSignalAnalyzerD2Ev T
__ZN6webrtc20ResidualEchoDetector10InitializeEiiii T
__ZN6webrtc20ResidualEchoDetector15instance_count_E S
__ZN6webrtc20ResidualEchoDetector18AnalyzeRenderAudioEN3rtc9ArrayViewIKfLln4711EEE T
__ZN6webrtc20ResidualEchoDetector19AnalyzeCaptureAudioEN3rtc9ArrayViewIKfLln4711EEE T
__ZN6webrtc20ResidualEchoDetectorC2Ev T
__ZN6webrtc20ResidualEchoDetectorD0Ev T
__ZN6webrtc20ResidualEchoDetectorD1Ev T
__ZN6webrtc20ResidualEchoDetectorD2Ev T
__ZN6webrtc20ReverbDecayEstimator13AnalyzeFilterEN3rtc9ArrayViewIKfLln4711EEE T
__ZN6webrtc20ReverbDecayEstimator13EstimateDecayEN3rtc9ArrayViewIKfLln4711EEEi T
__ZN6webrtc20ReverbDecayEstimator20ResetDecayEstimationEv T
__ZN6webrtc20ReverbDecayEstimator25LateReverbLinearRegressor10AccumulateEf T
__ZN6webrtc20ReverbDecayEstimator25LateReverbLinearRegressor5ResetEi T
__ZN6webrtc20ReverbDecayEstimator25LateReverbLinearRegressor8EstimateEv T
__ZN6webrtc20ReverbDecayEstimator26EarlyReverbLengthEstimator10AccumulateEff T
__ZN6webrtc20ReverbDecayEstimator26EarlyReverbLengthEstimator5ResetEv T
__ZN6webrtc20ReverbDecayEstimator26EarlyReverbLengthEstimator8EstimateEv T
__ZN6webrtc20ReverbDecayEstimator26EarlyReverbLengthEstimatorC1Ei T
__ZN6webrtc20ReverbDecayEstimator26EarlyReverbLengthEstimatorC2Ei T
__ZN6webrtc20ReverbDecayEstimator26EarlyReverbLengthEstimatorD1Ev T
__ZN6webrtc20ReverbDecayEstimator26EarlyReverbLengthEstimatorD2Ev T
__ZN6webrtc20ReverbDecayEstimator6UpdateEN3rtc9ArrayViewIKfLln4711EEERKNSt3__18optionalIfEEibb T
__ZN6webrtc20ReverbDecayEstimatorC1ERKNS_20EchoCanceller3ConfigE T
__ZN6webrtc20ReverbDecayEstimatorC2ERKNS_20EchoCanceller3ConfigE T
__ZN6webrtc20ReverbDecayEstimatorD1Ev T
__ZN6webrtc20ReverbDecayEstimatorD2Ev T
__ZN6webrtc20ReverbModelEstimator6UpdateEN3rtc9ArrayViewIKNSt3__16vectorIfNS3_9allocatorIfEEEELln4711EEENS2_IKNS4_INS3_5arrayIfLm65EEENS5_ISB_EEEELln4711EEENS2_IKNS3_8optionalIfEELln4711EEENS2_IKiLln4711EEERKNS4_IbNS5_IbEEEEb T
__ZN6webrtc20ReverbModelEstimatorC1ERKNS_20EchoCanceller3ConfigEm T
__ZN6webrtc20ReverbModelEstimatorC2ERKNS_20EchoCanceller3ConfigEm T
__ZN6webrtc20ReverbModelEstimatorD1Ev T
__ZN6webrtc20ReverbModelEstimatorD2Ev T
__ZN6webrtc20SignalModelEstimator19AdjustNormalizationEif T
__ZN6webrtc20SignalModelEstimator6UpdateEN3rtc9ArrayViewIKfLl129EEES4_S4_S4_ff T
__ZN6webrtc20SignalModelEstimatorC1Ev T
__ZN6webrtc20SignalModelEstimatorC2Ev T
__ZN6webrtc20SpeechLevelEstimator17UpdateIsConfidentEv T
__ZN6webrtc20SpeechLevelEstimator5ResetEv T
__ZN6webrtc20SpeechLevelEstimator6UpdateEfff T
__ZN6webrtc20SpeechLevelEstimatorC1EPNS_13ApmDataDumperERKNS_15AudioProcessing6Config15GainController215AdaptiveDigitalEi T
__ZN6webrtc20SpeechLevelEstimatorC2EPNS_13ApmDataDumperERKNS_15AudioProcessing6Config15GainController215AdaptiveDigitalEi T
__ZN6webrtc20SubbandErleEstimator11UpdateBandsERKNSt3__16vectorIbNS1_9allocatorIbEEEE T
__ZN6webrtc20SubbandErleEstimator23ResetAccumulatedSpectraEv T
__ZN6webrtc20SubbandErleEstimator24UpdateAccumulatedSpectraEN3rtc9ArrayViewIKfLl65EEENS2_IKNSt3__15arrayIfLm65EEELln4711EEES9_RKNS5_6vectorIbNS5_9allocatorIbEEEE T
__ZN6webrtc20SubbandErleEstimator38DecreaseErlePerBandForLowRenderSignalsEv T
__ZN6webrtc20SubbandErleEstimator5ResetEv T
__ZN6webrtc20SubbandErleEstimator6UpdateEN3rtc9ArrayViewIKfLl65EEENS2_IKNSt3__15arrayIfLm65EEELln4711EEES9_RKNS5_6vectorIbNS5_9allocatorIbEEEE T
__ZN6webrtc20SubbandErleEstimatorC1ERKNS_20EchoCanceller3ConfigEm T
__ZN6webrtc20SubbandErleEstimatorC2ERKNS_20EchoCanceller3ConfigEm T
__ZN6webrtc20SubbandErleEstimatorD1Ev T
__ZN6webrtc20SubbandErleEstimatorD2Ev T
__ZN6webrtc20WebRtcAecm_kCosTableE S
__ZN6webrtc20WebRtcAecm_kSinTableE S
__ZN6webrtc20WebRtcAgc_ProcessVadEPNS_6AgcVadEPKsm T
__ZN6webrtc20WebRtcAgc_VirtualMicEPvPKPsmmiPi T
__ZN6webrtc20WebRtcAgc_get_configEPvPNS_15WebRtcAgcConfigE T
__ZN6webrtc20WebRtcAgc_set_configEPvNS_15WebRtcAgcConfigE T
__ZN6webrtc20WebRtc_set_lookaheadEPvi T
__ZN6webrtc21BlockProcessorMetrics12ResetMetricsEv T
__ZN6webrtc21BlockProcessorMetrics12UpdateRenderEb T
__ZN6webrtc21BlockProcessorMetrics13UpdateCaptureEb T
__ZN6webrtc21CaptureLevelsAdjuster10SetPreGainEf T
__ZN6webrtc21CaptureLevelsAdjuster11SetPostGainEf T
__ZN6webrtc21CaptureLevelsAdjuster21SetAnalogMicGainLevelEi T
__ZN6webrtc21CaptureLevelsAdjuster23ApplyPreLevelAdjustmentERNS_11AudioBufferE T
__ZN6webrtc21CaptureLevelsAdjuster23UpdatePreAdjustmentGainEv T
__ZN6webrtc21CaptureLevelsAdjuster24ApplyPostLevelAdjustmentERNS_11AudioBufferE T
__ZN6webrtc21CaptureLevelsAdjusterC1Ebiff T
__ZN6webrtc21CaptureLevelsAdjusterC2Ebiff T
__ZN6webrtc21ChannelLayoutToStringENS_13ChannelLayoutE T
__ZN6webrtc21ComfortNoiseGenerator7ComputeEbN3rtc9ArrayViewIKNSt3__15arrayIfLm65EEELln4711EEENS2_INS_7FftDataELln4711EEES9_ T
__ZN6webrtc21ComfortNoiseGeneratorC1ERKNS_20EchoCanceller3ConfigENS_16Aec3OptimizationEm T
__ZN6webrtc21ComfortNoiseGeneratorC2ERKNS_20EchoCanceller3ConfigENS_16Aec3OptimizationEm T
__ZN6webrtc21ComfortNoiseGeneratorD1Ev T
__ZN6webrtc21ComfortNoiseGeneratorD2Ev T
__ZN6webrtc21EchoControlMobileImpl10InitializeEimm T
__ZN6webrtc21EchoControlMobileImpl16set_routing_modeENS0_11RoutingModeE T
__ZN6webrtc21EchoControlMobileImpl18ProcessRenderAudioEN3rtc9ArrayViewIKsLln4711EEE T
__ZN6webrtc21EchoControlMobileImpl19ProcessCaptureAudioEPNS_11AudioBufferEi T
__ZN6webrtc21EchoControlMobileImpl20enable_comfort_noiseEb T
__ZN6webrtc21EchoControlMobileImpl21NumCancellersRequiredEmm T
__ZN6webrtc21EchoControlMobileImpl21PackRenderAudioBufferEPKNS_11AudioBufferEmmPNSt3__16vectorIsNS4_9allocatorIsEEEE T
__ZN6webrtc21EchoControlMobileImpl9ConfigureEv T
__ZN6webrtc21EchoControlMobileImplC1Ev T
__ZN6webrtc21EchoControlMobileImplC2Ev T
__ZN6webrtc21EchoControlMobileImplD1Ev T
__ZN6webrtc21EchoControlMobileImplD2Ev T
__ZN6webrtc21FieldTrialConstrainedIdE5ParseENSt3__18optionalINS2_12basic_stringIcNS2_11char_traitsIcEENS2_9allocatorIcEEEEEE T
__ZN6webrtc21FieldTrialConstrainedIdEC1ENSt3__117basic_string_viewIcNS2_11char_traitsIcEEEEdNS2_8optionalIdEES8_ T
__ZN6webrtc21FieldTrialConstrainedIdEC2ENSt3__117basic_string_viewIcNS2_11char_traitsIcEEEEdNS2_8optionalIdEES8_ T
__ZN6webrtc21FieldTrialConstrainedIiE5ParseENSt3__18optionalINS2_12basic_stringIcNS2_11char_traitsIcEENS2_9allocatorIcEEEEEE T
__ZN6webrtc21FieldTrialConstrainedIiEC1ENSt3__117basic_string_viewIcNS2_11char_traitsIcEEEEiNS2_8optionalIiEES8_ T
__ZN6webrtc21FieldTrialConstrainedIiEC2ENSt3__117basic_string_viewIcNS2_11char_traitsIcEEEEiNS2_8optionalIiEES8_ T
__ZN6webrtc21FieldTrialConstrainedIjE5ParseENSt3__18optionalINS2_12basic_stringIcNS2_11char_traitsIcEENS2_9allocatorIcEEEEEE T
__ZN6webrtc21FieldTrialConstrainedIjEC1ENSt3__117basic_string_viewIcNS2_11char_traitsIcEEEEjNS2_8optionalIjEES8_ T
__ZN6webrtc21FieldTrialConstrainedIjEC2ENSt3__117basic_string_viewIcNS2_11char_traitsIcEEEEjNS2_8optionalIjEES8_ T
__ZN6webrtc21FullBandErleEstimator17ErleInstantaneous12UpdateMaxMinEv T
__ZN6webrtc21FullBandErleEstimator17ErleInstantaneous17ResetAccumulatorsEv T
__ZN6webrtc21FullBandErleEstimator17ErleInstantaneous21UpdateQualityEstimateEv T
__ZN6webrtc21FullBandErleEstimator17ErleInstantaneous5ResetEv T
__ZN6webrtc21FullBandErleEstimator17ErleInstantaneous6UpdateEff T
__ZN6webrtc21FullBandErleEstimator17ErleInstantaneousC1ERKNS_20EchoCanceller3Config4ErleE T
__ZN6webrtc21FullBandErleEstimator17ErleInstantaneousC2ERKNS_20EchoCanceller3Config4ErleE T
__ZN6webrtc21FullBandErleEstimator17ErleInstantaneousD1Ev T
__ZN6webrtc21FullBandErleEstimator17ErleInstantaneousD2Ev T
__ZN6webrtc21FullBandErleEstimator22UpdateQualityEstimatesEv T
__ZN6webrtc21FullBandErleEstimator5ResetEv T
__ZN6webrtc21FullBandErleEstimator6UpdateEN3rtc9ArrayViewIKfLln4711EEENS2_IKNSt3__15arrayIfLm65EEELln4711EEES9_RKNS5_6vectorIbNS5_9allocatorIbEEEE T
__ZN6webrtc21FullBandErleEstimatorC1ERKNS_20EchoCanceller3Config4ErleEm T
__ZN6webrtc21FullBandErleEstimatorC2ERKNS_20EchoCanceller3Config4ErleEm T
__ZN6webrtc21FullBandErleEstimatorD1Ev T
__ZN6webrtc21FullBandErleEstimatorD2Ev T
__ZN6webrtc21InputVolumeController10InitializeEv T
__ZN6webrtc21InputVolumeController17AnalyzeInputAudioEiRKNS_11AudioBufferE T
__ZN6webrtc21InputVolumeController20RecommendInputVolumeEfNSt3__18optionalIfEE T
__ZN6webrtc21InputVolumeController21SetAppliedInputVolumeEi T
__ZN6webrtc21InputVolumeController22AggregateChannelLevelsEv T
__ZN6webrtc21InputVolumeController29HandleCaptureOutputUsedChangeEb T
__ZN6webrtc21InputVolumeControllerC1EiRKNS0_6ConfigE T
__ZN6webrtc21InputVolumeControllerC2EiRKNS0_6ConfigE T
__ZN6webrtc21InputVolumeControllerD1Ev T
__ZN6webrtc21InputVolumeControllerD2Ev T
__ZN6webrtc21InterpolatedGainCurve12RegionLoggerC1ENSt3__117basic_string_viewIcNS2_11char_traitsIcEEEES6_S6_S6_ T
__ZN6webrtc21InterpolatedGainCurve12RegionLoggerC2ENSt3__117basic_string_viewIcNS2_11char_traitsIcEEEES6_S6_S6_ T
__ZN6webrtc21InterpolatedGainCurve12RegionLoggerD1Ev T
__ZN6webrtc21InterpolatedGainCurve12RegionLoggerD2Ev T
__ZN6webrtc21InterpolatedGainCurve23approximation_params_m_E S
__ZN6webrtc21InterpolatedGainCurve23approximation_params_q_E S
__ZN6webrtc21InterpolatedGainCurve23approximation_params_x_E S
__ZN6webrtc21InterpolatedGainCurveC1EPNS_13ApmDataDumperENSt3__117basic_string_viewIcNS3_11char_traitsIcEEEE T
__ZN6webrtc21InterpolatedGainCurveC2EPNS_13ApmDataDumperENSt3__117basic_string_viewIcNS3_11char_traitsIcEEEE T
__ZN6webrtc21InterpolatedGainCurveD1Ev T
__ZN6webrtc21InterpolatedGainCurveD2Ev T
__ZN6webrtc21MeanVarianceEstimator5ClearEv T
__ZN6webrtc21MeanVarianceEstimator6UpdateEf T
__ZN6webrtc21RenderDelayController6CreateERKNS_20EchoCanceller3ConfigEim T
__ZN6webrtc21ResidualEchoEstimator12UpdateReverbENS0_10ReverbTypeERKNS_8AecStateERKNS_12RenderBufferEb T
__ZN6webrtc21ResidualEchoEstimator22UpdateRenderNoisePowerERKNS_12RenderBufferE T
__ZN6webrtc21ResidualEchoEstimator5ResetEv T
__ZN6webrtc21ResidualEchoEstimator8EstimateERKNS_8AecStateERKNS_12RenderBufferEN3rtc9ArrayViewIKNSt3__15arrayIfLm65EEELln4711EEESD_bNS8_ISB_Lln4711EEESE_ T
__ZN6webrtc21ResidualEchoEstimatorC1ERKNS_20EchoCanceller3ConfigEm T
__ZN6webrtc21ResidualEchoEstimatorC2ERKNS_20EchoCanceller3ConfigEm T
__ZN6webrtc21ResidualEchoEstimatorD1Ev T
__ZN6webrtc21ResidualEchoEstimatorD2Ev T
__ZN6webrtc21SqrtFastApproximationEf T
__ZN6webrtc21StationarityEstimator13NoiseSpectrum5ResetEv T
__ZN6webrtc21StationarityEstimator13NoiseSpectrum6UpdateEN3rtc9ArrayViewIKNSt3__15arrayIfLm65EEELln4711EEE T
__ZN6webrtc21StationarityEstimator13NoiseSpectrumC1Ev T
__ZN6webrtc21StationarityEstimator13NoiseSpectrumC2Ev T
__ZN6webrtc21StationarityEstimator13NoiseSpectrumD1Ev T
__ZN6webrtc21StationarityEstimator13NoiseSpectrumD2Ev T
__ZN6webrtc21StationarityEstimator14UpdateHangoverEv T
__ZN6webrtc21StationarityEstimator15instance_count_E S
__ZN6webrtc21StationarityEstimator20UpdateNoiseEstimatorEN3rtc9ArrayViewIKNSt3__15arrayIfLm65EEELln4711EEE T
__ZN6webrtc21StationarityEstimator21AreAllBandsStationaryEv T
__ZN6webrtc21StationarityEstimator23SmoothStationaryPerFreqEv T
__ZN6webrtc21StationarityEstimator23UpdateStationarityFlagsERKNS_14SpectrumBufferEN3rtc9ArrayViewIKfLln4711EEEii T
__ZN6webrtc21StationarityEstimator5ResetEv T
__ZN6webrtc21StationarityEstimatorC1Ev T
__ZN6webrtc21StationarityEstimatorC2Ev T
__ZN6webrtc21StationarityEstimatorD1Ev T
__ZN6webrtc21StationarityEstimatorD2Ev T
__ZN6webrtc21VoiceActivityDetector12ProcessChunkEPKsmi T
__ZN6webrtc21VoiceActivityDetectorC1Ev T
__ZN6webrtc21VoiceActivityDetectorC2Ev T
__ZN6webrtc21VoiceActivityDetectorD1Ev T
__ZN6webrtc21VoiceActivityDetectorD2Ev T
__ZN6webrtc21WebRtcAecm_CreateCoreEv T
__ZN6webrtc21WebRtcAgc_InitDigitalEPNS_10DigitalAgcEs T
__ZN6webrtc22AbstractFieldTrialEnum5ParseENSt3__18optionalINS1_12basic_stringIcNS1_11char_traitsIcEENS1_9allocatorIcEEEEEE T
__ZN6webrtc22AbstractFieldTrialEnumC1ENSt3__117basic_string_viewIcNS1_11char_traitsIcEEEEiNS1_3mapINS1_12basic_stringIcS4_NS1_9allocatorIcEEEEiNS1_4lessISA_EENS8_INS1_4pairIKSA_iEEEEEE T
__ZN6webrtc22AbstractFieldTrialEnumC1ERKS0_ T
__ZN6webrtc22AbstractFieldTrialEnumC2ENSt3__117basic_string_viewIcNS1_11char_traitsIcEEEEiNS1_3mapINS1_12basic_stringIcS4_NS1_9allocatorIcEEEEiNS1_4lessISA_EENS8_INS1_4pairIKSA_iEEEEEE T
__ZN6webrtc22AbstractFieldTrialEnumC2ERKS0_ T
__ZN6webrtc22AbstractFieldTrialEnumD0Ev T
__ZN6webrtc22AbstractFieldTrialEnumD1Ev T
__ZN6webrtc22AbstractFieldTrialEnumD2Ev T
__ZN6webrtc22AudioProcessingBuilder6CreateEv T
__ZN6webrtc22AudioProcessingBuilderC1Ev T
__ZN6webrtc22AudioProcessingBuilderC2Ev T
__ZN6webrtc22AudioProcessingBuilderD1Ev T
__ZN6webrtc22AudioProcessingBuilderD2Ev T
__ZN6webrtc22CoarseFilterUpdateGain19UpdateCurrentConfigEv T
__ZN6webrtc22CoarseFilterUpdateGain20HandleEchoPathChangeEv T
__ZN6webrtc22CoarseFilterUpdateGain7ComputeERKNSt3__15arrayIfLm65EEERKNS_20RenderSignalAnalyzerERKNS_7FftDataEmbPS9_ T
__ZN6webrtc22CoarseFilterUpdateGainC1ERKNS_20EchoCanceller3Config6Filter19CoarseConfigurationEm T
__ZN6webrtc22CoarseFilterUpdateGainC2ERKNS_20EchoCanceller3Config6Filter19CoarseConfigurationEm T
__ZN6webrtc22EchoPathDelayEstimator13EstimateDelayERKNS_23DownsampledRenderBufferERKNS_5BlockE T
__ZN6webrtc22EchoPathDelayEstimator5ResetEb T
__ZN6webrtc22EchoPathDelayEstimator5ResetEbb T
__ZN6webrtc22EchoPathDelayEstimatorC1EPNS_13ApmDataDumperERKNS_20EchoCanceller3ConfigEm T
__ZN6webrtc22EchoPathDelayEstimatorC2EPNS_13ApmDataDumperERKNS_20EchoCanceller3ConfigEm T
__ZN6webrtc22EchoPathDelayEstimatorD1Ev T
__ZN6webrtc22EchoPathDelayEstimatorD2Ev T
__ZN6webrtc22NoAvailableCpuFeaturesEv T
__ZN6webrtc22QuantileNoiseEstimator8EstimateEN3rtc9ArrayViewIKfLl129EEENS2_IfLl129EEE T
__ZN6webrtc22QuantileNoiseEstimatorC1Ev T
__ZN6webrtc22QuantileNoiseEstimatorC2Ev T
__ZN6webrtc22SubbandNearendDetector6UpdateEN3rtc9ArrayViewIKNSt3__15arrayIfLm65EEELln4711EEES7_S7_b T
__ZN6webrtc22SubbandNearendDetectorC1ERKNS_20EchoCanceller3Config10Suppressor23SubbandNearendDetectionEm T
__ZN6webrtc22SubbandNearendDetectorC2ERKNS_20EchoCanceller3Config10Suppressor23SubbandNearendDetectionEm T
__ZN6webrtc23CreateClippingPredictorEiRKNS_15AudioProcessing6Config15GainController120AnalogGainController17ClippingPredictorE T
__ZN6webrtc23DominantNearendDetector6UpdateEN3rtc9ArrayViewIKNSt3__15arrayIfLm65EEELln4711EEES7_S7_b T
__ZN6webrtc23DominantNearendDetectorC1ERKNS_20EchoCanceller3Config10Suppressor24DominantNearendDetectionEm T
__ZN6webrtc23DominantNearendDetectorC2ERKNS_20EchoCanceller3Config10Suppressor24DominantNearendDetectionEm T
__ZN6webrtc23DownsampledRenderBufferC1Em T
__ZN6webrtc23DownsampledRenderBufferC2Em T
__ZN6webrtc23DownsampledRenderBufferD1Ev T
__ZN6webrtc23DownsampledRenderBufferD2Ev T
__ZN6webrtc23GetAvailableCpuFeaturesEv T
__ZN6webrtc23RefinedFilterUpdateGain15instance_count_E S
__ZN6webrtc23RefinedFilterUpdateGain19UpdateCurrentConfigEv T
__ZN6webrtc23RefinedFilterUpdateGain20HandleEchoPathChangeERKNS_19EchoPathVariabilityE T
__ZN6webrtc23RefinedFilterUpdateGain7ComputeERKNSt3__15arrayIfLm65EEERKNS_20RenderSignalAnalyzerERKNS_16SubtractorOutputEN3rtc9ArrayViewIKfLln4711EEEmbbPNS_7FftDataE T
__ZN6webrtc23RefinedFilterUpdateGainC1ERKNS_20EchoCanceller3Config6Filter20RefinedConfigurationEm T
__ZN6webrtc23RefinedFilterUpdateGainC2ERKNS_20EchoCanceller3Config6Filter20RefinedConfigurationEm T
__ZN6webrtc23RefinedFilterUpdateGainD1Ev T
__ZN6webrtc23RefinedFilterUpdateGainD2Ev T
__ZN6webrtc23ReverbFrequencyResponse6UpdateERKNSt3__16vectorINS1_5arrayIfLm65EEENS1_9allocatorIS4_EEEEiRKNS1_8optionalIfEEb T
__ZN6webrtc23ReverbFrequencyResponse6UpdateERKNSt3__16vectorINS1_5arrayIfLm65EEENS1_9allocatorIS4_EEEEif T
__ZN6webrtc23ReverbFrequencyResponseC1Eb T
__ZN6webrtc23ReverbFrequencyResponseC2Eb T
__ZN6webrtc23ReverbFrequencyResponseD1Ev T
__ZN6webrtc23ReverbFrequencyResponseD2Ev T
__ZN6webrtc23SpeechProbabilityBuffer15RemoveTransientEv T
__ZN6webrtc23SpeechProbabilityBuffer5ResetEv T
__ZN6webrtc23SpeechProbabilityBuffer6UpdateEf T
__ZN6webrtc23SpeechProbabilityBufferC1Ef T
__ZN6webrtc23SpeechProbabilityBufferC2Ef T
__ZN6webrtc23WebRtcAecm_CalcEnergiesEPNS_8AecmCoreEPKtsjPi T
__ZN6webrtc23WebRtcAecm_CalcStepSizeEPNS_8AecmCoreE T
__ZN6webrtc23WebRtcAecm_ProcessBlockEPNS_8AecmCoreEPKsS3_S3_Ps T
__ZN6webrtc23WebRtcAecm_ProcessFrameEPNS_8AecmCoreEPKsS3_S3_Ps T
__ZN6webrtc23WebRtcAgc_ProcessAnalogEPviPissPh T
__ZN6webrtc23WebRtc_MeanEstimatorFixEiiPi T
__ZN6webrtc23WebRtc_set_history_sizeEPvi T
__ZN6webrtc24DownmixInterleavedToMonoIsEEvPKT_miPS1_ T
__ZN6webrtc24ExpApproximationSignFlipEN3rtc9ArrayViewIKfLln4711EEENS1_IfLln4711EEE T
__ZN6webrtc24InputVolumeStatsReporter16UpdateStatisticsEi T
__ZN6webrtc24InputVolumeStatsReporterC1ENS0_15InputVolumeTypeE T
__ZN6webrtc24InputVolumeStatsReporterC2ENS0_15InputVolumeTypeE T
__ZN6webrtc24InputVolumeStatsReporterD1Ev T
__ZN6webrtc24InputVolumeStatsReporterD2Ev T
__ZN6webrtc24ProcessReverseAudioFrameEPNS_15AudioProcessingEPNS_10AudioFrameE T
__ZN6webrtc24SubtractorOutputAnalyzer20HandleEchoPathChangeEv T
__ZN6webrtc24SubtractorOutputAnalyzer6UpdateEN3rtc9ArrayViewIKNS_16SubtractorOutputELln4711EEEPbS6_S6_ T
__ZN6webrtc24SubtractorOutputAnalyzerC1Em T
__ZN6webrtc24SubtractorOutputAnalyzerC2Em T
__ZN6webrtc24WebRtcAecm_AlignedFarendEPNS_8AecmCoreEPii T
__ZN6webrtc24WebRtcAecm_FetchFarFrameEPNS_8AecmCoreEPsii T
__ZN6webrtc24WebRtcAecm_UpdateChannelEPNS_8AecmCoreEPKtsS3_sPi T
__ZN6webrtc24WebRtcAgc_SaturationCtrlEPNS_9LegacyAgcEPhPi T
__ZN6webrtc24WebRtc_AddFarSpectrumFixEPvPKtii T
__ZN6webrtc24WebRtc_binary_last_delayEPNS_20BinaryDelayEstimatorE T
__ZN6webrtc25CreateNoiseFloorEstimatorEPNS_13ApmDataDumperE T
__ZN6webrtc25CreateSaturationProtectorEfiPNS_13ApmDataDumperE T
__ZN6webrtc25MonoInputVolumeController10InitializeEv T
__ZN6webrtc25MonoInputVolumeController11SetMaxLevelEi T
__ZN6webrtc25MonoInputVolumeController14HandleClippingEi T
__ZN6webrtc25MonoInputVolumeController14SetInputVolumeEi T
__ZN6webrtc25MonoInputVolumeController17UpdateInputVolumeEi T
__ZN6webrtc25MonoInputVolumeController19CheckVolumeAndResetEv T
__ZN6webrtc25MonoInputVolumeController29HandleCaptureOutputUsedChangeEb T
__ZN6webrtc25MonoInputVolumeController7ProcessENSt3__18optionalIiEEf T
__ZN6webrtc25MonoInputVolumeControllerC1Eiiiff T
__ZN6webrtc25MonoInputVolumeControllerC2Eiiiff T
__ZN6webrtc25MonoInputVolumeControllerD1Ev T
__ZN6webrtc25MonoInputVolumeControllerD2Ev T
__ZN6webrtc25PriorSignalModelEstimator6UpdateERKNS_10HistogramsE T
__ZN6webrtc25PriorSignalModelEstimatorC1Ef T
__ZN6webrtc25PriorSignalModelEstimatorC2Ef T
__ZN6webrtc25SaturationProtectorBuffer5ResetEv T
__ZN6webrtc25SaturationProtectorBuffer8PushBackEf T
__ZN6webrtc25SaturationProtectorBufferC1Ev T
__ZN6webrtc25SaturationProtectorBufferC2Ev T
__ZN6webrtc25SaturationProtectorBufferD1Ev T
__ZN6webrtc25SaturationProtectorBufferD2Ev T
__ZN6webrtc25WebRtcAecm_BufferFarFrameEPNS_8AecmCoreEPKsi T
__ZN6webrtc25WebRtc_FreeDelayEstimatorEPv T
__ZN6webrtc25WebRtc_InitDelayEstimatorEPv T
__ZN6webrtc25WebRtc_get_allowed_offsetEPKv T
__ZN6webrtc25WebRtc_last_delay_qualityEPv T
__ZN6webrtc25WebRtc_set_allowed_offsetEPvi T
__ZN6webrtc26FixedDigitalLevelEstimator12ComputeLevelENS_17DeinterleavedViewIKfEE T
__ZN6webrtc26FixedDigitalLevelEstimator20SetSamplesPerChannelEm T
__ZN6webrtc26FixedDigitalLevelEstimator25CheckParameterCombinationEv T
__ZN6webrtc26FixedDigitalLevelEstimator5ResetEv T
__ZN6webrtc26FixedDigitalLevelEstimatorC1EmPNS_13ApmDataDumperE T
__ZN6webrtc26FixedDigitalLevelEstimatorC2EmPNS_13ApmDataDumperE T
__ZN6webrtc26MatchedFilterLagAggregator20PreEchoLagAggregator4DumpEPNS_13ApmDataDumperE T
__ZN6webrtc26MatchedFilterLagAggregator20PreEchoLagAggregator5ResetEv T
__ZN6webrtc26MatchedFilterLagAggregator20PreEchoLagAggregator9AggregateEi T
__ZN6webrtc26MatchedFilterLagAggregator20PreEchoLagAggregatorC1Emm T
__ZN6webrtc26MatchedFilterLagAggregator20PreEchoLagAggregatorC2Emm T
__ZN6webrtc26MatchedFilterLagAggregator21HighestPeakAggregator5ResetEv T
__ZN6webrtc26MatchedFilterLagAggregator21HighestPeakAggregator9AggregateEi T
__ZN6webrtc26MatchedFilterLagAggregator21HighestPeakAggregatorC1Em T
__ZN6webrtc26MatchedFilterLagAggregator21HighestPeakAggregatorC2Em T
__ZN6webrtc26MatchedFilterLagAggregator5ResetEb T
__ZN6webrtc26MatchedFilterLagAggregator9AggregateERKNSt3__18optionalIKNS_13MatchedFilter11LagEstimateEEE T
__ZN6webrtc26MatchedFilterLagAggregatorC1EPNS_13ApmDataDumperEmRKNS_20EchoCanceller3Config5DelayE T
__ZN6webrtc26MatchedFilterLagAggregatorC2EPNS_13ApmDataDumperEmRKNS_20EchoCanceller3Config5DelayE T
__ZN6webrtc26MatchedFilterLagAggregatorD1Ev T
__ZN6webrtc26MatchedFilterLagAggregatorD2Ev T
__ZN6webrtc26SpeechProbabilityEstimator6UpdateEiN3rtc9ArrayViewIKfLl129EEES4_S4_S4_ff T
__ZN6webrtc26SpeechProbabilityEstimatorC1Ev T
__ZN6webrtc26SpeechProbabilityEstimatorC2Ev T
__ZN6webrtc26WebRtc_AddFarSpectrumFloatEPvPKfi T
__ZN6webrtc27ChannelLayoutToChannelCountENS_13ChannelLayoutE T
__ZN6webrtc27GetSubframesPitchParametersEiPdS0_iiS0_S0_S0_S0_ T
__ZN6webrtc27MultiChannelContentDetector13MetricsLogger6UpdateEb T
__ZN6webrtc27MultiChannelContentDetector13MetricsLoggerC1Ev T
__ZN6webrtc27MultiChannelContentDetector13MetricsLoggerC2Ev T
__ZN6webrtc27MultiChannelContentDetector13MetricsLoggerD1Ev T
__ZN6webrtc27MultiChannelContentDetector13MetricsLoggerD2Ev T
__ZN6webrtc27MultiChannelContentDetector15UpdateDetectionERKNSt3__16vectorINS2_INS2_IfNS1_9allocatorIfEEEENS3_IS5_EEEENS3_IS7_EEEE T
__ZN6webrtc27MultiChannelContentDetectorC1Ebifif T
__ZN6webrtc27MultiChannelContentDetectorC2Ebifif T
__ZN6webrtc27WebRtcAecm_InitEchoPathCoreEPNS_8AecmCoreEPKs T
__ZN6webrtc27WebRtcAecm_UpdateFarHistoryEPNS_8AecmCoreEPti T
__ZN6webrtc27WebRtcAgc_ApplyDigitalGainsEPKimjPKPKsPKPs T
__ZN6webrtc27WebRtcAgc_GetAddFarendErrorEPvm T
__ZN6webrtc27WebRtc_AddBinaryFarSpectrumEPNS_26BinaryDelayEstimatorFarendEj T
__ZN6webrtc27WebRtc_CreateDelayEstimatorEPvi T
__ZN6webrtc28ClippingPredictorLevelBuffer4PushENS0_5LevelE T
__ZN6webrtc28ClippingPredictorLevelBuffer5ResetEv T
__ZN6webrtc28ClippingPredictorLevelBufferC1Ei T
__ZN6webrtc28ClippingPredictorLevelBufferC2Ei T
__ZN6webrtc28FieldTrialParameterInterfaceC2ENSt3__117basic_string_viewIcNS1_11char_traitsIcEEEE T
__ZN6webrtc28FieldTrialParameterInterfaceD0Ev T
__ZN6webrtc28FieldTrialParameterInterfaceD1Ev T
__ZN6webrtc28FieldTrialParameterInterfaceD2Ev T
__ZN6webrtc28RenderDelayControllerMetrics12ResetMetricsEv T
__ZN6webrtc28RenderDelayControllerMetrics6UpdateENSt3__18optionalImEES3_NS_18ClockdriftDetector5LevelE T
__ZN6webrtc28RenderDelayControllerMetricsC1Ev T
__ZN6webrtc28RenderDelayControllerMetricsC2Ev T
__ZN6webrtc28SignalDependentErleEstimator23UpdateCorrectionFactorsEN3rtc9ArrayViewIKfLl65EEENS2_IKNSt3__15arrayIfLm65EEELln4711EEES9_RKNS5_6vectorIbNS5_9allocatorIbEEEE T
__ZN6webrtc28SignalDependentErleEstimator27ComputeActiveFilterSectionsEv T
__ZN6webrtc28SignalDependentErleEstimator35ComputeEchoEstimatePerFilterSectionERKNS_12RenderBufferEN3rtc9ArrayViewIKNSt3__16vectorINS6_5arrayIfLm65EEENS6_9allocatorIS9_EEEELln4711EEE T
__ZN6webrtc28SignalDependentErleEstimator35ComputeNumberOfActiveFilterSectionsERKNS_12RenderBufferEN3rtc9ArrayViewIKNSt3__16vectorINS6_5arrayIfLm65EEENS6_9allocatorIS9_EEEELln4711EEE T
__ZN6webrtc28SignalDependentErleEstimator5ResetEv T
__ZN6webrtc28SignalDependentErleEstimator6UpdateERKNS_12RenderBufferEN3rtc9ArrayViewIKNSt3__16vectorINS6_5arrayIfLm65EEENS6_9allocatorIS9_EEEELln4711EEENS5_IKfLl65EEENS5_IKS9_Lln4711EEESI_SI_SI_RKNS7_IbNSA_IbEEEE T
__ZN6webrtc28SignalDependentErleEstimatorC1ERKNS_20EchoCanceller3ConfigEm T
__ZN6webrtc28SignalDependentErleEstimatorC2ERKNS_20EchoCanceller3ConfigEm T
__ZN6webrtc28SignalDependentErleEstimatorD1Ev T
__ZN6webrtc28SignalDependentErleEstimatorD2Ev T
__ZN6webrtc28VoiceActivityDetectorWrapper7AnalyzeENS_17DeinterleavedViewIKfEE T
__ZN6webrtc28VoiceActivityDetectorWrapperC1ERKNS_20AvailableCpuFeaturesEi T
__ZN6webrtc28VoiceActivityDetectorWrapperC1EiNSt3__110unique_ptrINS0_7MonoVadENS1_14default_deleteIS3_EEEEi T
__ZN6webrtc28VoiceActivityDetectorWrapperC1EiRKNS_20AvailableCpuFeaturesEi T
__ZN6webrtc28VoiceActivityDetectorWrapperC2ERKNS_20AvailableCpuFeaturesEi T
__ZN6webrtc28VoiceActivityDetectorWrapperC2EiNSt3__110unique_ptrINS0_7MonoVadENS1_14default_deleteIS3_EEEEi T
__ZN6webrtc28VoiceActivityDetectorWrapperC2EiRKNS_20AvailableCpuFeaturesEi T
__ZN6webrtc28VoiceActivityDetectorWrapperD1Ev T
__ZN6webrtc28VoiceActivityDetectorWrapperD2Ev T
__ZN6webrtc28WebRtcAgc_AddFarendToDigitalEPNS_10DigitalAgcEPKsm T
__ZN6webrtc28WebRtcAgc_CalculateGainTableEPisshs T
__ZN6webrtc28WebRtc_ProcessBinarySpectrumEPNS_20BinaryDelayEstimatorEj T
__ZN6webrtc29AdaptiveDigitalGainController7ProcessERKNS0_9FrameInfoENS_17DeinterleavedViewIfEE T
__ZN6webrtc29AdaptiveDigitalGainControllerC1EPNS_13ApmDataDumperERKNS_15AudioProcessing6Config15GainController215AdaptiveDigitalEi T
__ZN6webrtc29AdaptiveDigitalGainControllerC2EPNS_13ApmDataDumperERKNS_15AudioProcessing6Config15GainController215AdaptiveDigitalEi T
__ZN6webrtc29NormalizedCovarianceEstimator5ClearEv T
__ZN6webrtc29NormalizedCovarianceEstimator6UpdateEffffff T
__ZN6webrtc29WebRtcAecm_CalcLinearEnergiesE S
__ZN6webrtc29WebRtcAgc_ComputeDigitalGainsEPNS_10DigitalAgcEPKPKsmjsPi T
__ZN6webrtc29WebRtcAgc_SpeakerInactiveCtrlEPNS_9LegacyAgcE T
__ZN6webrtc29WebRtcAgc_UpdateAgcThresholdsEPNS_9LegacyAgcE T
__ZN6webrtc30WebRtcAecm_CalcSuppressionGainEPNS_8AecmCoreE T
__ZN6webrtc30WebRtc_SoftResetDelayEstimatorEPvi T
__ZN6webrtc31WebRtcAecm_ResetAdaptiveChannelE S
__ZN6webrtc31WebRtcAecm_StoreAdaptiveChannelE S
__ZN6webrtc31WebRtc_DelayEstimatorProcessFixEPvPKtii T
__ZN6webrtc31WebRtc_FreeBinaryDelayEstimatorEPNS_20BinaryDelayEstimatorE T
__ZN6webrtc31WebRtc_FreeDelayEstimatorFarendEPv T
__ZN6webrtc31WebRtc_InitBinaryDelayEstimatorEPNS_20BinaryDelayEstimatorE T
__ZN6webrtc31WebRtc_InitDelayEstimatorFarendEPv T
__ZN6webrtc31WebRtc_enable_robust_validationEPvi T
__ZN6webrtc32WebRtc_binary_last_delay_qualityEPNS_20BinaryDelayEstimatorE T
__ZN6webrtc33WebRtc_AllocateFarendBufferMemoryEPNS_26BinaryDelayEstimatorFarendEi T
__ZN6webrtc33WebRtc_CreateBinaryDelayEstimatorEPNS_26BinaryDelayEstimatorFarendEi T
__ZN6webrtc33WebRtc_CreateDelayEstimatorFarendEii T
__ZN6webrtc33WebRtc_DelayEstimatorProcessFloatEPvPKfi T
__ZN6webrtc34WebRtc_AllocateHistoryBufferMemoryEPNS_20BinaryDelayEstimatorEi T
__ZN6webrtc35WebRtc_is_robust_validation_enabledEPKv T
__ZN6webrtc36WebRtc_SoftResetBinaryDelayEstimatorEPNS_20BinaryDelayEstimatorEi T
__ZN6webrtc36WebRtc_SoftResetDelayEstimatorFarendEPvi T
__ZN6webrtc37WebRtc_FreeBinaryDelayEstimatorFarendEPNS_26BinaryDelayEstimatorFarendE T
__ZN6webrtc37WebRtc_InitBinaryDelayEstimatorFarendEPNS_26BinaryDelayEstimatorFarendE T
__ZN6webrtc39WebRtc_CreateBinaryDelayEstimatorFarendEi T
__ZN6webrtc3Agc13GetRmsErrorDbEPi T
__ZN6webrtc3Agc21set_target_level_dbfsEi T
__ZN6webrtc3Agc5ResetEv T
__ZN6webrtc3Agc7ProcessEN3rtc9ArrayViewIKsLln4711EEE T
__ZN6webrtc3AgcC1Ev T
__ZN6webrtc3AgcC2Ev T
__ZN6webrtc3AgcD0Ev T
__ZN6webrtc3AgcD1Ev T
__ZN6webrtc3AgcD2Ev T
__ZN6webrtc42WebRtc_SoftResetBinaryDelayEstimatorFarendEPNS_26BinaryDelayEstimatorFarendEi T
__ZN6webrtc4aec311ApplyFilterERKNS_12RenderBufferEmRKNSt3__16vectorINS5_INS_7FftDataENS4_9allocatorIS6_EEEENS7_IS9_EEEEPS6_ T
__ZN6webrtc4aec311ErlComputerERKNSt3__16vectorINS1_5arrayIfLm65EEENS1_9allocatorIS4_EEEEN3rtc9ArrayViewIfLln4711EEE T
__ZN6webrtc4aec313MovingAverage7AverageEN3rtc9ArrayViewIKfLln4711EEENS3_IfLln4711EEE T
__ZN6webrtc4aec313MovingAverageC1Emm T
__ZN6webrtc4aec313MovingAverageC2Emm T
__ZN6webrtc4aec313MovingAverageD1Ev T
__ZN6webrtc4aec313MovingAverageD2Ev T
__ZN6webrtc4aec314UpdateDbMetricERKNSt3__15arrayIfLm65EEEPNS2_INS_18EchoRemoverMetrics8DbMetricELm2EEE T
__ZN6webrtc4aec315AdaptPartitionsERKNS_12RenderBufferERKNS_7FftDataEmPNSt3__16vectorINS8_IS4_NS7_9allocatorIS4_EEEENS9_ISB_EEEE T
__ZN6webrtc4aec317MatchedFilterCoreEmffN3rtc9ArrayViewIKfLln4711EEES4_NS2_IfLln4711EEEPbPfbS5_ T
__ZN6webrtc4aec318MaxSquarePeakIndexEN3rtc9ArrayViewIKfLln4711EEE T
__ZN6webrtc4aec324ComputeFrequencyResponseEmRKNSt3__16vectorINS2_INS_7FftDataENS1_9allocatorIS3_EEEENS4_IS6_EEEEPNS2_INS1_5arrayIfLm65EEENS4_ISC_EEEE T
__ZN6webrtc4aec329TransformDbMetricForReportingEbfffff T
__ZN6webrtc4test13SineGeneratorC1Effi T
__ZN6webrtc4test13SineGeneratorC2Effi T
__ZN6webrtc4test13SineGeneratorclEv T
__ZN6webrtc4test14PulseGeneratorC1Efffi T
__ZN6webrtc4test14PulseGeneratorC2Efffi T
__ZN6webrtc4test14PulseGeneratorclEv T
__ZN6webrtc4test19WhiteNoiseGeneratorC1Eii T
__ZN6webrtc4test19WhiteNoiseGeneratorC2Eii T
__ZN6webrtc4test19WhiteNoiseGeneratorclEv T
__ZN6webrtc4test47ComputeInterpolatedGainCurveApproximationParamsEv T
__ZN6webrtc4test8LinSpaceEddi T
__ZN6webrtc58UpdateHistogramOnRecommendedInputVolumeChangeToMatchTargetEi T
__ZN6webrtc5NrFft3FftEN3rtc9ArrayViewIfLl256EEES3_S3_ T
__ZN6webrtc5NrFft4IfftEN3rtc9ArrayViewIKfLln4711EEES4_NS2_IfLln4711EEE T
__ZN6webrtc5NrFftC1Ev T
__ZN6webrtc5NrFftC2Ev T
__ZN6webrtc5Pffft11FloatBuffer7GetViewEv T
__ZN6webrtc5Pffft11FloatBufferC1EmNS0_7FftTypeE T
__ZN6webrtc5Pffft11FloatBufferC2EmNS0_7FftTypeE T
__ZN6webrtc5Pffft11FloatBufferD1Ev T
__ZN6webrtc5Pffft11FloatBufferD2Ev T
__ZN6webrtc5Pffft13IsSimdEnabledEv T
__ZN6webrtc5Pffft14IsValidFftSizeEmNS0_7FftTypeE T
__ZN6webrtc5Pffft16ForwardTransformERKNS0_11FloatBufferEPS1_b T
__ZN6webrtc5Pffft17BackwardTransformERKNS0_11FloatBufferEPS1_b T
__ZN6webrtc5Pffft23FrequencyDomainConvolveERKNS0_11FloatBufferES3_PS1_f T
__ZN6webrtc5PffftC1EmNS0_7FftTypeE T
__ZN6webrtc5PffftC2EmNS0_7FftTypeE T
__ZN6webrtc5PffftD1Ev T
__ZN6webrtc5PffftD2Ev T
__ZN6webrtc6Random11ExponentialEd T
__ZN6webrtc6Random4RandEii T
__ZN6webrtc6Random4RandEj T
__ZN6webrtc6Random4RandEjj T
__ZN6webrtc6Random4RandIbEET_v T
__ZN6webrtc6Random4RandIdEET_v T
__ZN6webrtc6Random4RandIfEET_v T
__ZN6webrtc6Random8GaussianEdd T
__ZN6webrtc6RandomC1Ey T
__ZN6webrtc6RandomC2Ey T
__ZN6webrtc7Aec3FftC1Ev T
__ZN6webrtc7Aec3FftC2Ev T
__ZN6webrtc7Limiter20SetSamplesPerChannelEm T
__ZN6webrtc7Limiter5ResetEv T
__ZN6webrtc7Limiter7ProcessENS_17DeinterleavedViewIfEE T
__ZN6webrtc7LimiterC1EPNS_13ApmDataDumperEmNSt3__117basic_string_viewIcNS3_11char_traitsIcEEEE T
__ZN6webrtc7LimiterC2EPNS_13ApmDataDumperEmNSt3__117basic_string_viewIcNS3_11char_traitsIcEEEE T
__ZN6webrtc7LimiterD1Ev T
__ZN6webrtc7LimiterD2Ev T
__ZN6webrtc7MonoAgc10InitializeEv T
__ZN6webrtc7MonoAgc10UpdateGainEi T
__ZN6webrtc7MonoAgc11SetMaxLevelEi T
__ZN6webrtc7MonoAgc14HandleClippingEi T
__ZN6webrtc7MonoAgc16UpdateCompressorEv T
__ZN6webrtc7MonoAgc19CheckVolumeAndResetEv T
__ZN6webrtc7MonoAgc29HandleCaptureOutputUsedChangeEb T
__ZN6webrtc7MonoAgc7ProcessEN3rtc9ArrayViewIKsLln4711EEENSt3__18optionalIiEE T
__ZN6webrtc7MonoAgc8SetLevelEi T
__ZN6webrtc7MonoAgcC1EPNS_13ApmDataDumperEibi T
__ZN6webrtc7MonoAgcC2EPNS_13ApmDataDumperEibi T
__ZN6webrtc7MonoAgcD1Ev T
__ZN6webrtc7MonoAgcD2Ev T
__ZN6webrtc7metrics10NumSamplesENSt3__117basic_string_viewIcNS1_11char_traitsIcEEEE T
__ZN6webrtc7metrics10SampleInfoC1ENSt3__117basic_string_viewIcNS2_11char_traitsIcEEEEiim T
__ZN6webrtc7metrics10SampleInfoC2ENSt3__117basic_string_viewIcNS2_11char_traitsIcEEEEiim T
__ZN6webrtc7metrics10SampleInfoD1Ev T
__ZN6webrtc7metrics10SampleInfoD2Ev T
__ZN6webrtc7metrics11GetAndResetEPNSt3__13mapINS1_12basic_stringIcNS1_11char_traitsIcEENS1_9allocatorIcEEEENS1_10unique_ptrINS0_10SampleInfoENS1_14default_deleteISA_EEEEN3rtc17AbslStringViewCmpENS6_INS1_4pairIKS8_SD_EEEEEE T
__ZN6webrtc7metrics12HistogramAddEPNS0_9HistogramEi T
__ZN6webrtc7metrics25HistogramFactoryGetCountsENSt3__117basic_string_viewIcNS1_11char_traitsIcEEEEiii T
__ZN6webrtc7metrics30HistogramFactoryGetEnumerationENSt3__117basic_string_viewIcNS1_11char_traitsIcEEEEi T
__ZN6webrtc7metrics31HistogramFactoryGetCountsLinearENSt3__117basic_string_viewIcNS1_11char_traitsIcEEEEiii T
__ZN6webrtc7metrics36SparseHistogramFactoryGetEnumerationENSt3__117basic_string_viewIcNS1_11char_traitsIcEEEEi T
__ZN6webrtc7metrics5ResetEv T
__ZN6webrtc7metrics6EnableEv T
__ZN6webrtc7metrics7SamplesENSt3__117basic_string_viewIcNS1_11char_traitsIcEEEE T
__ZN6webrtc7metrics9MinSampleENSt3__117basic_string_viewIcNS1_11char_traitsIcEEEE T
__ZN6webrtc7metrics9NumEventsENSt3__117basic_string_viewIcNS1_11char_traitsIcEEEEi T
__ZN6webrtc7rnn_vad10ComputeDctEN3rtc9ArrayViewIKfLln4711EEENS2_IS3_Ll484EEENS2_IfLln4711EEE T
__ZN6webrtc7rnn_vad10Decimate2xEN3rtc9ArrayViewIKfLl864EEENS2_IfLl432EEE T
__ZN6webrtc7rnn_vad14PitchEstimator8EstimateEN3rtc9ArrayViewIKfLl864EEE T
__ZN6webrtc7rnn_vad14PitchEstimatorC1ERKNS_20AvailableCpuFeaturesE T
__ZN6webrtc7rnn_vad14PitchEstimatorC2ERKNS_20AvailableCpuFeaturesE T
__ZN6webrtc7rnn_vad14PitchEstimatorD1Ev T
__ZN6webrtc7rnn_vad14PitchEstimatorD2Ev T
__ZN6webrtc7rnn_vad15ComputeDctTableEv T
__ZN6webrtc7rnn_vad17ComputeLpResidualEN3rtc9ArrayViewIKfLl5EEENS2_IS3_Lln4711EEENS2_IfLln4711EEE T
__ZN6webrtc7rnn_vad17FeaturesExtractor27CheckSilenceComputeFeaturesEN3rtc9ArrayViewIKfLl240EEENS3_IfLl42EEE T
__ZN6webrtc7rnn_vad17FeaturesExtractor5ResetEv T
__ZN6webrtc7rnn_vad17FeaturesExtractorC1ERKNS_20AvailableCpuFeaturesE T
__ZN6webrtc7rnn_vad17FeaturesExtractorC2ERKNS_20AvailableCpuFeaturesE T
__ZN6webrtc7rnn_vad17FeaturesExtractorD1Ev T
__ZN6webrtc7rnn_vad17FeaturesExtractorD2Ev T
__ZN6webrtc7rnn_vad18SpectralCorrelatorC1Ev T
__ZN6webrtc7rnn_vad18SpectralCorrelatorC2Ev T
__ZN6webrtc7rnn_vad18SpectralCorrelatorD1Ev T
__ZN6webrtc7rnn_vad18SpectralCorrelatorD2Ev T
__ZN6webrtc7rnn_vad19FullyConnectedLayer13ComputeOutputEN3rtc9ArrayViewIKfLln4711EEE T
__ZN6webrtc7rnn_vad19FullyConnectedLayerC1EiiN3rtc9ArrayViewIKaLln4711EEES5_NS0_18ActivationFunctionERKNS_20AvailableCpuFeaturesENSt3__117basic_string_viewIcNSA_11char_traitsIcEEEE T
__ZN6webrtc7rnn_vad19FullyConnectedLayerC2EiiN3rtc9ArrayViewIKaLln4711EEES5_NS0_18ActivationFunctionERKNS_20AvailableCpuFeaturesENSt3__117basic_string_viewIcNSA_11char_traitsIcEEEE T
__ZN6webrtc7rnn_vad19FullyConnectedLayerD1Ev T
__ZN6webrtc7rnn_vad19FullyConnectedLayerD2Ev T
__ZN6webrtc7rnn_vad19GatedRecurrentLayer13ComputeOutputEN3rtc9ArrayViewIKfLln4711EEE T
__ZN6webrtc7rnn_vad19GatedRecurrentLayer5ResetEv T
__ZN6webrtc7rnn_vad19GatedRecurrentLayerC1EiiN3rtc9ArrayViewIKaLln4711EEES5_S5_RKNS_20AvailableCpuFeaturesENSt3__117basic_string_viewIcNS9_11char_traitsIcEEEE T
__ZN6webrtc7rnn_vad19GatedRecurrentLayerC2EiiN3rtc9ArrayViewIKaLln4711EEES5_S5_RKNS_20AvailableCpuFeaturesENSt3__117basic_string_viewIcNS9_11char_traitsIcEEEE T
__ZN6webrtc7rnn_vad19GatedRecurrentLayerD1Ev T
__ZN6webrtc7rnn_vad19GatedRecurrentLayerD2Ev T
__ZN6webrtc7rnn_vad23ComputePitchPeriod12kHzEN3rtc9ArrayViewIKfLl432EEENS2_IS3_Ll147EEENS_20AvailableCpuFeaturesE T
__ZN6webrtc7rnn_vad23ComputePitchPeriod48kHzEN3rtc9ArrayViewIKfLl864EEENS2_IS3_Ll385EEENS0_21CandidatePitchPeriodsENS_20AvailableCpuFeaturesE T
__ZN6webrtc7rnn_vad25AutoCorrelationCalculator20ComputeOnPitchBufferEN3rtc9ArrayViewIKfLl432EEENS3_IfLl147EEE T
__ZN6webrtc7rnn_vad25AutoCorrelationCalculatorC1Ev T
__ZN6webrtc7rnn_vad25AutoCorrelationCalculatorC2Ev T
__ZN6webrtc7rnn_vad25AutoCorrelationCalculatorD1Ev T
__ZN6webrtc7rnn_vad25AutoCorrelationCalculatorD2Ev T
__ZN6webrtc7rnn_vad25SpectralFeaturesExtractor27CheckSilenceComputeFeaturesEN3rtc9ArrayViewIKfLl480EEES5_NS3_IfLl16EEENS3_IfLl6EEES7_S7_S7_Pf T
__ZN6webrtc7rnn_vad25SpectralFeaturesExtractor36ComputeNormalizedCepstralCorrelationEN3rtc9ArrayViewIfLl6EEE T
__ZN6webrtc7rnn_vad25SpectralFeaturesExtractor5ResetEv T
__ZN6webrtc7rnn_vad25SpectralFeaturesExtractorC1Ev T
__ZN6webrtc7rnn_vad25SpectralFeaturesExtractorC2Ev T
__ZN6webrtc7rnn_vad25SpectralFeaturesExtractorD1Ev T
__ZN6webrtc7rnn_vad25SpectralFeaturesExtractorD2Ev T
__ZN6webrtc7rnn_vad31ComputeExtendedPitchPeriod48kHzEN3rtc9ArrayViewIKfLl864EEENS2_IS3_Ll385EEEiNS0_9PitchInfoENS_20AvailableCpuFeaturesE T
__ZN6webrtc7rnn_vad35ComputeSmoothedLogMagnitudeSpectrumEN3rtc9ArrayViewIKfLln4711EEENS2_IfLl22EEE T
__ZN6webrtc7rnn_vad36ComputeAndPostProcessLpcCoefficientsEN3rtc9ArrayViewIKfLln4711EEENS2_IfLl5EEE T
__ZN6webrtc7rnn_vad38ComputeSlidingFrameSquareEnergies24kHzEN3rtc9ArrayViewIKfLl864EEENS2_IfLl385EEENS_20AvailableCpuFeaturesE T
__ZN6webrtc7rnn_vad6RnnVad21ComputeVadProbabilityEN3rtc9ArrayViewIKfLl42EEEb T
__ZN6webrtc7rnn_vad6RnnVad5ResetEv T
__ZN6webrtc7rnn_vad6RnnVadC1ERKNS_20AvailableCpuFeaturesE T
__ZN6webrtc7rnn_vad6RnnVadC2ERKNS_20AvailableCpuFeaturesE T
__ZN6webrtc7rnn_vad6RnnVadD1Ev T
__ZN6webrtc7rnn_vad6RnnVadD2Ev T
__ZN6webrtc8AecState11FilterDelay6UpdateEN3rtc9ArrayViewIKiLln4711EEERKNSt3__18optionalINS_13DelayEstimateEEEm T
__ZN6webrtc8AecState11FilterDelayC1ERKNS_20EchoCanceller3ConfigEm T
__ZN6webrtc8AecState11FilterDelayC2ERKNS_20EchoCanceller3ConfigEm T
__ZN6webrtc8AecState12InitialState5ResetEv T
__ZN6webrtc8AecState12InitialState6UpdateEbb T
__ZN6webrtc8AecState12InitialStateC1ERKNS_20EchoCanceller3ConfigE T
__ZN6webrtc8AecState12InitialStateC2ERKNS_20EchoCanceller3ConfigE T
__ZN6webrtc8AecState15instance_count_E S
__ZN6webrtc8AecState18SaturationDetector6UpdateERKNS_5BlockEbbN3rtc9ArrayViewIKNS_16SubtractorOutputELln4711EEEf T
__ZN6webrtc8AecState20HandleEchoPathChangeERKNS_19EchoPathVariabilityE T
__ZN6webrtc8AecState24FilteringQualityAnalyzer5ResetEv T
__ZN6webrtc8AecState24FilteringQualityAnalyzer6UpdateEbbbRKNSt3__18optionalINS_13DelayEstimateEEEb T
__ZN6webrtc8AecState24FilteringQualityAnalyzerC1ERKNS_20EchoCanceller3ConfigEm T
__ZN6webrtc8AecState24FilteringQualityAnalyzerC2ERKNS_20EchoCanceller3ConfigEm T
__ZN6webrtc8AecState6UpdateERKNSt3__18optionalINS_13DelayEstimateEEEN3rtc9ArrayViewIKNS1_6vectorINS1_5arrayIfLm65EEENS1_9allocatorISB_EEEELln4711EEENS8_IKNS9_IfNSC_IfEEEELln4711EEERKNS_12RenderBufferENS8_IKSB_Lln4711EEESP_NS8_IKNS_16SubtractorOutputELln4711EEE T
__ZN6webrtc8AecStateC1ERKNS_20EchoCanceller3ConfigEm T
__ZN6webrtc8AecStateC2ERKNS_20EchoCanceller3ConfigEm T
__ZN6webrtc8AecStateD1Ev T
__ZN6webrtc8AecStateD2Ev T
__ZN6webrtc8Log2TodBEf T
__ZN6webrtc8OouraFftC1Eb T
__ZN6webrtc8OouraFftC1Ev T
__ZN6webrtc8OouraFftC2Eb T
__ZN6webrtc8OouraFftC2Ev T
__ZN6webrtc8OouraFftD1Ev T
__ZN6webrtc8OouraFftD2Ev T
__ZN6webrtc8RmsLevel12AnalyzeMutedEm T
__ZN6webrtc8RmsLevel14AverageAndPeakEv T
__ZN6webrtc8RmsLevel14CheckBlockSizeEm T
__ZN6webrtc8RmsLevel5ResetEv T
__ZN6webrtc8RmsLevel7AnalyzeEN3rtc9ArrayViewIKfLln4711EEE T
__ZN6webrtc8RmsLevel7AnalyzeEN3rtc9ArrayViewIKsLln4711EEE T
__ZN6webrtc8RmsLevel7AverageEv T
__ZN6webrtc8RmsLevelC1Ev T
__ZN6webrtc8RmsLevelC2Ev T
__ZN6webrtc8RmsLevelD1Ev T
__ZN6webrtc8RmsLevelD2Ev T
__ZN6webrtc9Decimator8DecimateEN3rtc9ArrayViewIKfLln4711EEENS2_IfLln4711EEE T
__ZN6webrtc9DecimatorC1Em T
__ZN6webrtc9DecimatorC2Em T
__ZN6webrtc9FftBufferC1Emm T
__ZN6webrtc9FftBufferC2Emm T
__ZN6webrtc9FftBufferD1Ev T
__ZN6webrtc9FftBufferD2Ev T
__ZN6webrtc9MovingMax5ClearEv T
__ZN6webrtc9MovingMax6UpdateEf T
__ZN6webrtc9MovingMaxC1Em T
__ZN6webrtc9MovingMaxC2Em T
__ZN6webrtc9MovingMaxD1Ev T
__ZN6webrtc9MovingMaxD2Ev T
__ZN6webrtc9Resampler13ResetIfNeededEiim T
__ZN6webrtc9Resampler20ComputeResamplerModeEiiPNS0_13ResamplerModeE T
__ZN6webrtc9Resampler4PushEPKsmPsmRm T
__ZN6webrtc9Resampler5ResetEiim T
__ZN6webrtc9ResamplerC1Eiim T
__ZN6webrtc9ResamplerC1Ev T
__ZN6webrtc9ResamplerC2Eiim T
__ZN6webrtc9ResamplerC2Ev T
__ZN6webrtc9ResamplerD1Ev T
__ZN6webrtc9ResamplerD2Ev T
__ZN7rnnoise14kHiddenGruBiasE S
__ZN7rnnoise15kInputDenseBiasE S
__ZN7rnnoise16kOutputDenseBiasE S
__ZN7rnnoise17kHiddenGruWeightsE S
__ZN7rnnoise18TansigApproximatedEf T
__ZN7rnnoise18kInputDenseWeightsE S
__ZN7rnnoise19SigmoidApproximatedEf T
__ZN7rnnoise19kOutputDenseWeightsE S
__ZN7rnnoise26kHiddenGruRecurrentWeightsE S
__ZNK3rtc10LogLineRef14DefaultLogLineEv T
__ZNK3rtc11RaceChecker7AcquireEv T
__ZNK3rtc11RaceChecker7ReleaseEv T
__ZNK3rtc14PlatformThread9GetHandleEv T
__ZNK3rtc8internal16RaceCheckerScope12RaceDetectedEv T
__ZNK4absl12lts_2024072216strings_internal11BigUnsignedILi4EE4sizeEv T
__ZNK4absl12lts_2024072216strings_internal11BigUnsignedILi4EE5wordsEv T
__ZNK4absl12lts_2024072216strings_internal11BigUnsignedILi4EE7GetWordEi T
__ZNK4absl12lts_2024072216strings_internal11BigUnsignedILi4EE8ToStringEv T
__ZNK4absl12lts_2024072216strings_internal11BigUnsignedILi84EE4sizeEv T
__ZNK4absl12lts_2024072216strings_internal11BigUnsignedILi84EE5wordsEv T
__ZNK4absl12lts_2024072216strings_internal11BigUnsignedILi84EE7GetWordEi T
__ZNK4absl12lts_2024072216strings_internal11BigUnsignedILi84EE8ToStringEv T
__ZNK6webrtc10AudioFrame20ElapsedProfileTimeMsEv T
__ZNK6webrtc10AudioFrame4dataEv T
__ZNK6webrtc10AudioFrame5mutedEv T
__ZNK6webrtc10AudioFrame9data_viewEv T
__ZNK6webrtc10Subtractor28FilterMisadjustmentEstimator4DumpEPNS_13ApmDataDumperE T
__ZNK6webrtc11AudioBuffer22ExportSplitChannelDataEmPKPs T
__ZNK6webrtc11AudioBuffer6CopyToEPS0_ T
__ZNK6webrtc12FrameBlocker16IsBlockAvailableEv T
__ZNK6webrtc12RenderBuffer11SpectralSumEmPNSt3__15arrayIfLm65EEE T
__ZNK6webrtc12RenderBuffer12SpectralSumsEmmPNSt3__15arrayIfLm65EEES4_ T
__ZNK6webrtc12WienerFilter27ComputeOverallScalingFactorEifff T
__ZNK6webrtc13ErleEstimator4DumpERKNSt3__110unique_ptrINS_13ApmDataDumperENS1_14default_deleteIS3_EEEE T
__ZNK6webrtc13MatchedFilter19LogFilterPropertiesEimm T
__ZNK6webrtc13SincResampler9ChunkSizeEv T
__ZNK6webrtc14AlignmentMixer7DownmixERKNS_5BlockEN3rtc9ArrayViewIfLl64EEE T
__ZNK6webrtc14AudioConverter10CheckSizesEmm T
__ZNK6webrtc14EchoCanceller310GetMetricsEv T
__ZNK6webrtc14EchoCanceller316ActiveProcessingEv T
__ZNK6webrtc14FieldTrialFlag3GetEv T
__ZNK6webrtc14FieldTrialFlagcvbEv T
__ZNK6webrtc15AudioProcessing6Config15GainController1eqERKS2_ T
__ZNK6webrtc15AudioProcessing6Config15GainController215AdaptiveDigitaleqERKS3_ T
__ZNK6webrtc15AudioProcessing6Config15GainController221InputVolumeControllereqERKS3_ T
__ZNK6webrtc15AudioProcessing6Config15GainController2eqERKS2_ T
__ZNK6webrtc15AudioProcessing6Config22CaptureLevelAdjustment22AnalogMicGainEmulationeqERKS3_ T
__ZNK6webrtc15AudioProcessing6Config22CaptureLevelAdjustmenteqERKS2_ T
__ZNK6webrtc15AudioProcessing6Config8ToStringEv T
__ZNK6webrtc15GainControlImpl19stream_analog_levelEv T
__ZNK6webrtc15NoiseSuppressor22AggregateWienerFiltersEN3rtc9ArrayViewIfLl129EEE T
__ZNK6webrtc15SuppressionGain10GetMaxGainEN3rtc9ArrayViewIfLln4711EEE T
__ZNK6webrtc15SuppressionGain10GetMinGainEN3rtc9ArrayViewIKfLln4711EEES4_S4_bbNS2_IfLln4711EEE T
__ZNK6webrtc15SuppressionGain14UpperBandsGainEN3rtc9ArrayViewIKNSt3__15arrayIfLm65EEELln4711EEES7_RKNS3_8optionalIiEEbRKNS_5BlockERS6_ T
__ZNK6webrtc15SuppressionGain19GainToNoAudibleEchoERKNSt3__15arrayIfLm65EEES5_S5_PS3_ T
__ZNK6webrtc16AgcManagerDirect17voice_probabilityEv T
__ZNK6webrtc16AgcManagerDirect23SetupDigitalGainControlERNS_11GainControlE T
__ZNK6webrtc16VectorFloatFrame16float_frame_viewEv T
__ZNK6webrtc17AdaptiveFirFilter24ComputeFrequencyResponseEPNSt3__16vectorINS1_5arrayIfLm65EEENS1_9allocatorIS4_EEEE T
__ZNK6webrtc17AdaptiveFirFilter6FilterERKNS_12RenderBufferEPNS_7FftDataE T
__ZNK6webrtc17InternalAPMConfigeqERKS0_ T
__ZNK6webrtc17LoudnessHistogram10CurrentRmsEv T
__ZNK6webrtc17LoudnessHistogram12AudioContentEv T
__ZNK6webrtc17VadCircularBuffer20ConvertToLinearIndexEPi T
__ZNK6webrtc17VadCircularBuffer3GetEiPd T
__ZNK6webrtc17VadCircularBuffer6OldestEv T
__ZNK6webrtc18FieldTrialOptionalINSt3__112basic_stringIcNS1_11char_traitsIcEENS1_9allocatorIcEEEEE11GetOptionalEv T
__ZNK6webrtc18FieldTrialOptionalINSt3__112basic_stringIcNS1_11char_traitsIcEENS1_9allocatorIcEEEEE5ValueEv T
__ZNK6webrtc18FieldTrialOptionalINSt3__112basic_stringIcNS1_11char_traitsIcEENS1_9allocatorIcEEEEEcvbEv T
__ZNK6webrtc18FieldTrialOptionalINSt3__112basic_stringIcNS1_11char_traitsIcEENS1_9allocatorIcEEEEEdeEv T
__ZNK6webrtc18FieldTrialOptionalINSt3__112basic_stringIcNS1_11char_traitsIcEENS1_9allocatorIcEEEEEptEv T
__ZNK6webrtc18FieldTrialOptionalIbE11GetOptionalEv T
__ZNK6webrtc18FieldTrialOptionalIbE5ValueEv T
__ZNK6webrtc18FieldTrialOptionalIbEcvbEv T
__ZNK6webrtc18FieldTrialOptionalIbEdeEv T
__ZNK6webrtc18FieldTrialOptionalIbEptEv T
__ZNK6webrtc18FieldTrialOptionalIdE11GetOptionalEv T
__ZNK6webrtc18FieldTrialOptionalIdE5ValueEv T
__ZNK6webrtc18FieldTrialOptionalIdEcvbEv T
__ZNK6webrtc18FieldTrialOptionalIdEdeEv T
__ZNK6webrtc18FieldTrialOptionalIdEptEv T
__ZNK6webrtc18FieldTrialOptionalIiE11GetOptionalEv T
__ZNK6webrtc18FieldTrialOptionalIiE5ValueEv T
__ZNK6webrtc18FieldTrialOptionalIiEcvbEv T
__ZNK6webrtc18FieldTrialOptionalIiEdeEv T
__ZNK6webrtc18FieldTrialOptionalIiEptEv T
__ZNK6webrtc18FieldTrialOptionalIjE11GetOptionalEv T
__ZNK6webrtc18FieldTrialOptionalIjE5ValueEv T
__ZNK6webrtc18FieldTrialOptionalIjEcvbEv T
__ZNK6webrtc18FieldTrialOptionalIjEdeEv T
__ZNK6webrtc18FieldTrialOptionalIjEptEv T
__ZNK6webrtc18LimiterDbGainCurve13GetGainLinearEd T
__ZNK6webrtc18LimiterDbGainCurve18GetOutputLevelDbfsEd T
__ZNK6webrtc18LimiterDbGainCurve21GetGainIntegralLinearEdd T
__ZNK6webrtc18LimiterDbGainCurve28GetGainFirstDerivativeLinearEd T
__ZNK6webrtc18LimiterDbGainCurve28GetKneeRegionOutputLevelDbfsEd T
__ZNK6webrtc18LimiterDbGainCurve34GetCompressorRegionOutputLevelDbfsEd T
__ZNK6webrtc19AudioProcessingImpl15SubmoduleStates21CaptureAnalyzerActiveEv T
__ZNK6webrtc19AudioProcessingImpl15SubmoduleStates25HighPassFilteringRequiredEv T
__ZNK6webrtc19AudioProcessingImpl15SubmoduleStates30RenderFullBandProcessingActiveEv T
__ZNK6webrtc19AudioProcessingImpl15SubmoduleStates31CaptureFullBandProcessingActiveEv T
__ZNK6webrtc19AudioProcessingImpl15SubmoduleStates31RenderMultiBandProcessingActiveEv T
__ZNK6webrtc19AudioProcessingImpl15SubmoduleStates31RenderMultiBandSubModulesActiveEv T
__ZNK6webrtc19AudioProcessingImpl15SubmoduleStates32CaptureMultiBandProcessingActiveEb T
__ZNK6webrtc19AudioProcessingImpl15SubmoduleStates32CaptureMultiBandSubModulesActiveEv T
__ZNK6webrtc19AudioProcessingImpl15SubmoduleStates33CaptureMultiBandProcessingPresentEv T
__ZNK6webrtc19AudioProcessingImpl15stream_delay_msEv T
__ZNK6webrtc19AudioProcessingImpl17num_proc_channelsEv T
__ZNK6webrtc19AudioProcessingImpl18GetLinearAecOutputEN3rtc9ArrayViewINSt3__15arrayIfLm160EEELln4711EEE T
__ZNK6webrtc19AudioProcessingImpl18num_input_channelsEv T
__ZNK6webrtc19AudioProcessingImpl19num_output_channelsEv T
__ZNK6webrtc19AudioProcessingImpl19proc_sample_rate_hzEv T
__ZNK6webrtc19AudioProcessingImpl20num_reverse_channelsEv T
__ZNK6webrtc19AudioProcessingImpl25proc_split_sample_rate_hzEv T
__ZNK6webrtc19AudioProcessingImpl28proc_fullband_sample_rate_hzEv T
__ZNK6webrtc19AudioProcessingImpl31recommended_stream_analog_levelEv T
__ZNK6webrtc19AudioProcessingImpl9GetConfigEv T
__ZNK6webrtc19FieldTrialParameterINSt3__112basic_stringIcNS1_11char_traitsIcEENS1_9allocatorIcEEEEE3GetEv T
__ZNK6webrtc19FieldTrialParameterINSt3__112basic_stringIcNS1_11char_traitsIcEENS1_9allocatorIcEEEEEcvS7_Ev T
__ZNK6webrtc19FieldTrialParameterINSt3__112basic_stringIcNS1_11char_traitsIcEENS1_9allocatorIcEEEEEptEv T
__ZNK6webrtc19FieldTrialParameterIbE3GetEv T
__ZNK6webrtc19FieldTrialParameterIbEcvbEv T
__ZNK6webrtc19FieldTrialParameterIbEptEv T
__ZNK6webrtc19FieldTrialParameterIdE3GetEv T
__ZNK6webrtc19FieldTrialParameterIdEcvdEv T
__ZNK6webrtc19FieldTrialParameterIdEptEv T
__ZNK6webrtc19FieldTrialParameterIiE3GetEv T
__ZNK6webrtc19FieldTrialParameterIiEcviEv T
__ZNK6webrtc19FieldTrialParameterIiEptEv T
__ZNK6webrtc19FieldTrialParameterIjE3GetEv T
__ZNK6webrtc19FieldTrialParameterIjEcvjEv T
__ZNK6webrtc19FieldTrialParameterIjEptEv T
__ZNK6webrtc20ApiCallJitterMetrics30WillReportMetricsAtNextCaptureEv T
__ZNK6webrtc20AvailableCpuFeatures8ToStringEv T
__ZNK6webrtc20RenderSignalAnalyzer28MaskRegionsAroundNarrowBandsEPNSt3__15arrayIfLm65EEE T
__ZNK6webrtc20ResidualEchoDetector10GetMetricsEv T
__ZNK6webrtc20ReverbDecayEstimator26EarlyReverbLengthEstimator4DumpEPNS_13ApmDataDumperE T
__ZNK6webrtc20ReverbDecayEstimator4DumpEPNS_13ApmDataDumperE T
__ZNK6webrtc20SpeechLevelEstimator13DumpDebugDataEv T
__ZNK6webrtc20SpeechLevelEstimator19LevelEstimatorState5Ratio8GetRatioEv T
__ZNK6webrtc20SpeechLevelEstimator19LevelEstimatorStateeqERKS1_ T
__ZNK6webrtc20SpeechLevelEstimator24ResetLevelEstimatorStateERNS0_19LevelEstimatorStateE T
__ZNK6webrtc20SubbandErleEstimator4DumpERKNSt3__110unique_ptrINS_13ApmDataDumperENS1_14default_deleteIS3_EEEE T
__ZNK6webrtc21EchoControlMobileImpl12routing_modeEv T
__ZNK6webrtc21EchoControlMobileImpl24is_comfort_noise_enabledEv T
__ZNK6webrtc21FieldTrialConstrainedIdE3GetEv T
__ZNK6webrtc21FieldTrialConstrainedIdEcvdEv T
__ZNK6webrtc21FieldTrialConstrainedIdEptEv T
__ZNK6webrtc21FieldTrialConstrainedIiE3GetEv T
__ZNK6webrtc21FieldTrialConstrainedIiEcviEv T
__ZNK6webrtc21FieldTrialConstrainedIiEptEv T
__ZNK6webrtc21FieldTrialConstrainedIjE3GetEv T
__ZNK6webrtc21FieldTrialConstrainedIjEcvjEv T
__ZNK6webrtc21FieldTrialConstrainedIjEptEv T
__ZNK6webrtc21FullBandErleEstimator17ErleInstantaneous4DumpERKNSt3__110unique_ptrINS_13ApmDataDumperENS2_14default_deleteIS4_EEEE T
__ZNK6webrtc21FullBandErleEstimator4DumpERKNSt3__110unique_ptrINS_13ApmDataDumperENS1_14default_deleteIS3_EEEE T
__ZNK6webrtc21InterpolatedGainCurve11UpdateStatsEf T
__ZNK6webrtc21InterpolatedGainCurve12RegionLogger14LogRegionStatsERKNS0_5StatsE T
__ZNK6webrtc21InterpolatedGainCurve17LookUpGainToApplyEf T
__ZNK6webrtc21MeanVarianceEstimator13std_deviationEv T
__ZNK6webrtc21MeanVarianceEstimator4meanEv T
__ZNK6webrtc21ResidualEchoEstimator15GetEchoPathGainERKNS_8AecStateEb T
__ZNK6webrtc21ResidualEchoEstimator9AddReverbEN3rtc9ArrayViewINSt3__15arrayIfLm65EEELln4711EEE T
__ZNK6webrtc21StationarityEstimator13NoiseSpectrum21UpdateBandBySmoothingEfff T
__ZNK6webrtc21StationarityEstimator13NoiseSpectrum8GetAlphaEv T
__ZNK6webrtc21StationarityEstimator17IsBlockStationaryEv T
__ZNK6webrtc21StationarityEstimator24EstimateBandStationarityERKNS_14SpectrumBufferEN3rtc9ArrayViewIKfLln4711EEERKNSt3__15arrayIiLm13EEEm T
__ZNK6webrtc23SpeechProbabilityBuffer15IsActiveSegmentEv T
__ZNK6webrtc24InputVolumeStatsReporter20LogVolumeUpdateStatsEv T
__ZNK6webrtc25SaturationProtectorBuffer10FrontIndexEv T
__ZNK6webrtc25SaturationProtectorBuffer4SizeEv T
__ZNK6webrtc25SaturationProtectorBuffer5FrontEv T
__ZNK6webrtc25SaturationProtectorBuffer8CapacityEv T
__ZNK6webrtc25SaturationProtectorBuffereqERKS0_ T
__ZNK6webrtc28ClippingPredictorLevelBuffer21ComputePartialMetricsEii T
__ZNK6webrtc28ClippingPredictorLevelBuffer5LeveleqERKS1_ T
__ZNK6webrtc28SignalDependentErleEstimator4DumpERKNSt3__110unique_ptrINS_13ApmDataDumperENS1_14default_deleteIS3_EEEE T
__ZNK6webrtc3Agc17target_level_dbfsEv T
__ZNK6webrtc3Agc17voice_probabilityEv T
__ZNK6webrtc5Pffft11FloatBuffer12GetConstViewEv T
__ZNK6webrtc5Pffft12CreateBufferEv T
__ZNK6webrtc7Aec3Fft13ZeroPaddedFftEN3rtc9ArrayViewIKfLln4711EEENS0_6WindowEPNS_7FftDataE T
__ZNK6webrtc7Aec3Fft9PaddedFftEN3rtc9ArrayViewIKfLln4711EEES4_NS0_6WindowEPNS_7FftDataE T
__ZNK6webrtc7Limiter14LastAudioLevelEv T
__ZNK6webrtc7Limiter17GetGainCurveStatsEv T
__ZNK6webrtc7rnn_vad18SpectralCorrelator22ComputeAutoCorrelationEN3rtc9ArrayViewIKfLln4711EEENS3_IfLl20EEE T
__ZNK6webrtc7rnn_vad18SpectralCorrelator23ComputeCrossCorrelationEN3rtc9ArrayViewIKfLln4711EEES5_NS3_IfLl20EEE T
__ZNK6webrtc7rnn_vad25SpectralFeaturesExtractor18ComputeVariabilityEv T
__ZNK6webrtc7rnn_vad25SpectralFeaturesExtractor24ComputeAvgAndDerivativesEN3rtc9ArrayViewIfLl6EEES4_S4_ T
__ZNK6webrtc8AecState22GetResidualEchoScalingEN3rtc9ArrayViewIfLln4711EEE T
__ZNK6webrtc8OouraFft10InverseFftEPf T
__ZNK6webrtc8OouraFft10bitrv2_128EPf T
__ZNK6webrtc8OouraFft10cft1st_128EPf T
__ZNK6webrtc8OouraFft10cftmdl_128EPf T
__ZNK6webrtc8OouraFft11cftbsub_128EPf T
__ZNK6webrtc8OouraFft11cftfsub_128EPf T
__ZNK6webrtc8OouraFft11rftbsub_128EPf T
__ZNK6webrtc8OouraFft11rftfsub_128EPf T
__ZNK6webrtc8OouraFft3FftEPf T
__ZNK6webrtc9MovingMax3maxEv T
__ZNSt3__119piecewise_constructE S
__ZTIN3rtc14PlatformThreadE S
__ZTIN3rtc7LogSinkE S
__ZTIN6webrtc11AudioBufferE S
__ZTIN6webrtc13SincResamplerE S
__ZTIN6webrtc14EchoCanceller3E S
__ZTIN6webrtc14FieldTrialFlagE S
__ZTIN6webrtc15GainControlImplE S
__ZTIN6webrtc16CustomProcessingE S
__ZTIN6webrtc17PushSincResamplerE S
__ZTIN6webrtc18FieldTrialOptionalINSt3__112basic_stringIcNS1_11char_traitsIcEENS1_9allocatorIcEEEEEE S
__ZTIN6webrtc18FieldTrialOptionalIbEE S
__ZTIN6webrtc18FieldTrialOptionalIdEE S
__ZTIN6webrtc18FieldTrialOptionalIiEE S
__ZTIN6webrtc18FieldTrialOptionalIjEE S
__ZTIN6webrtc19AudioProcessingImplE S
__ZTIN6webrtc19FieldTrialParameterINSt3__112basic_stringIcNS1_11char_traitsIcEENS1_9allocatorIcEEEEEE S
__ZTIN6webrtc19FieldTrialParameterIbEE S
__ZTIN6webrtc19FieldTrialParameterIdEE S
__ZTIN6webrtc19FieldTrialParameterIiEE S
__ZTIN6webrtc19FieldTrialParameterIjEE S
__ZTIN6webrtc20ResidualEchoDetectorE S
__ZTIN6webrtc21FieldTrialConstrainedIdEE S
__ZTIN6webrtc21FieldTrialConstrainedIiEE S
__ZTIN6webrtc21FieldTrialConstrainedIjEE S
__ZTIN6webrtc22AbstractFieldTrialEnumE S
__ZTIN6webrtc22SubbandNearendDetectorE S
__ZTIN6webrtc23DominantNearendDetectorE S
__ZTIN6webrtc28FieldTrialParameterInterfaceE S
__ZTIN6webrtc3AgcE S
__ZTSN3rtc14PlatformThreadE S
__ZTSN3rtc7LogSinkE S
__ZTSN6webrtc11AudioBufferE S
__ZTSN6webrtc13SincResamplerE S
__ZTSN6webrtc14EchoCanceller3E S
__ZTSN6webrtc14FieldTrialFlagE S
__ZTSN6webrtc15GainControlImplE S
__ZTSN6webrtc16CustomProcessingE S
__ZTSN6webrtc17PushSincResamplerE S
__ZTSN6webrtc18FieldTrialOptionalINSt3__112basic_stringIcNS1_11char_traitsIcEENS1_9allocatorIcEEEEEE S
__ZTSN6webrtc18FieldTrialOptionalIbEE S
__ZTSN6webrtc18FieldTrialOptionalIdEE S
__ZTSN6webrtc18FieldTrialOptionalIiEE S
__ZTSN6webrtc18FieldTrialOptionalIjEE S
__ZTSN6webrtc19AudioProcessingImplE S
__ZTSN6webrtc19FieldTrialParameterINSt3__112basic_stringIcNS1_11char_traitsIcEENS1_9allocatorIcEEEEEE S
__ZTSN6webrtc19FieldTrialParameterIbEE S
__ZTSN6webrtc19FieldTrialParameterIdEE S
__ZTSN6webrtc19FieldTrialParameterIiEE S
__ZTSN6webrtc19FieldTrialParameterIjEE S
__ZTSN6webrtc20ResidualEchoDetectorE S
__ZTSN6webrtc21FieldTrialConstrainedIdEE S
__ZTSN6webrtc21FieldTrialConstrainedIiEE S
__ZTSN6webrtc21FieldTrialConstrainedIjEE S
__ZTSN6webrtc22AbstractFieldTrialEnumE S
__ZTSN6webrtc22SubbandNearendDetectorE S
__ZTSN6webrtc23DominantNearendDetectorE S
__ZTSN6webrtc28FieldTrialParameterInterfaceE S
__ZTSN6webrtc3AgcE S
__ZTVN3rtc14PlatformThreadE S
__ZTVN3rtc7LogSinkE S
__ZTVN6webrtc11AudioBufferE S
__ZTVN6webrtc13SincResamplerE S
__ZTVN6webrtc14EchoCanceller3E S
__ZTVN6webrtc14FieldTrialFlagE S
__ZTVN6webrtc15GainControlImplE S
__ZTVN6webrtc16CustomProcessingE S
__ZTVN6webrtc17PushSincResamplerE S
__ZTVN6webrtc18FieldTrialOptionalINSt3__112basic_stringIcNS1_11char_traitsIcEENS1_9allocatorIcEEEEEE S
__ZTVN6webrtc18FieldTrialOptionalIbEE S
__ZTVN6webrtc18FieldTrialOptionalIdEE S
__ZTVN6webrtc18FieldTrialOptionalIiEE S
__ZTVN6webrtc18FieldTrialOptionalIjEE S
__ZTVN6webrtc19AudioProcessingImplE S
__ZTVN6webrtc19FieldTrialParameterINSt3__112basic_stringIcNS1_11char_traitsIcEENS1_9allocatorIcEEEEEE S
__ZTVN6webrtc19FieldTrialParameterIbEE S
__ZTVN6webrtc19FieldTrialParameterIdEE S
__ZTVN6webrtc19FieldTrialParameterIiEE S
__ZTVN6webrtc19FieldTrialParameterIjEE S
__ZTVN6webrtc20ResidualEchoDetectorE S
__ZTVN6webrtc21FieldTrialConstrainedIdEE S
__ZTVN6webrtc21FieldTrialConstrainedIiEE S
__ZTVN6webrtc21FieldTrialConstrainedIjEE S
__ZTVN6webrtc22AbstractFieldTrialEnumE S
__ZTVN6webrtc22SubbandNearendDetectorE S
__ZTVN6webrtc23DominantNearendDetectorE S
__ZTVN6webrtc28FieldTrialParameterInterfaceE S
__ZTVN6webrtc3AgcE S
__ZZN3rtc18webrtc_checks_impl11LogStreamerIJEE11CallCheckOpIJNS0_3ValILNS0_12CheckArgTypeE1EiEENS4_ILS5_5EmEEEEEvPKciS9_DpRKT_E1t S
__ZZN3rtc18webrtc_checks_impl11LogStreamerIJEE11CallCheckOpIJNS0_3ValILNS0_12CheckArgTypeE1EiEES6_EEEvPKciS8_DpRKT_E1t S
__ZZN3rtc18webrtc_checks_impl11LogStreamerIJEE11CallCheckOpIJNS0_3ValILNS0_12CheckArgTypeE1EiEES6_S6_NS4_ILS5_9EPKcEES6_EEEvS8_iS8_DpRKT_E1t S
__ZZN3rtc18webrtc_checks_impl11LogStreamerIJEE11CallCheckOpIJNS0_3ValILNS0_12CheckArgTypeE5EmEENS4_ILS5_1EiEEEEEvPKciS9_DpRKT_E1t S
__ZZN3rtc18webrtc_checks_impl11LogStreamerIJEE11CallCheckOpIJNS0_3ValILNS0_12CheckArgTypeE5EmEENS4_ILS5_1EiEES6_NS4_ILS5_9EPKcEES6_EEEvS9_iS9_DpRKT_E1t S
__ZZN3rtc18webrtc_checks_impl11LogStreamerIJEE11CallCheckOpIJNS0_3ValILNS0_12CheckArgTypeE5EmEES6_EEEvPKciS8_DpRKT_E1t S
__ZZN3rtc18webrtc_checks_impl11LogStreamerIJEE11CallCheckOpIJNS0_3ValILNS0_12CheckArgTypeE7EdEES6_EEEvPKciS8_DpRKT_E1t S
__ZZN3rtc18webrtc_checks_impl11LogStreamerIJEE4CallIJEEEvPKciS5_DpRKT_E1t S
__ZZN3rtc18webrtc_checks_impl11LogStreamerIJEE4CallIJNS0_3ValILNS0_12CheckArgTypeE9EPKcEEEEEvS7_iS7_DpRKT_E1t S
__ZZN3rtc19webrtc_logging_impl11LogStreamerIJEE4CallIJNS0_3ValILNS0_10LogArgTypeE13ENS0_11LogMetadataEEENS4_ILS5_9EPKcEEEEEvDpRKT_E1t S
__ZZN3rtc19webrtc_logging_impl11LogStreamerIJEE4CallIJNS0_3ValILNS0_10LogArgTypeE13ENS0_11LogMetadataEEENS4_ILS5_9EPKcEENS4_ILS5_10EPKNSt3__112basic_stringIcNSB_11char_traitsIcEENSB_9allocatorIcEEEEEEEEEvDpRKT_E1t S
__ZZN3rtc19webrtc_logging_impl11LogStreamerIJEE4CallIJNS0_3ValILNS0_10LogArgTypeE13ENS0_11LogMetadataEEENS4_ILS5_9EPKcEENS4_ILS5_11EPKNSt3__117basic_string_viewIcNSB_11char_traitsIcEEEEEESA_EEEvDpRKT_E1t S
__ZZN3rtc19webrtc_logging_impl11LogStreamerIJEE4CallIJNS0_3ValILNS0_10LogArgTypeE13ENS0_11LogMetadataEEENS4_ILS5_9EPKcEENS4_ILS5_11EPKNSt3__117basic_string_viewIcNSB_11char_traitsIcEEEEEESA_NS4_ILS5_1EiEESA_NS4_ILS5_7EdEEEEEvDpRKT_E1t S
__ZZN3rtc19webrtc_logging_impl11LogStreamerIJEE4CallIJNS0_3ValILNS0_10LogArgTypeE13ENS0_11LogMetadataEEENS4_ILS5_9EPKcEENS4_ILS5_11EPKNSt3__117basic_string_viewIcNSB_11char_traitsIcEEEEEESA_NS4_ILS5_7EdEESA_SJ_EEEvDpRKT_E1t S
__ZZN3rtc19webrtc_logging_impl11LogStreamerIJEE4CallIJNS0_3ValILNS0_10LogArgTypeE13ENS0_11LogMetadataEEENS4_ILS5_9EPKcEENS4_ILS5_11EPKNSt3__117basic_string_viewIcNSB_11char_traitsIcEEEEEESA_SI_SA_EEEvDpRKT_E1t S
__ZZN3rtc19webrtc_logging_impl11LogStreamerIJEE4CallIJNS0_3ValILNS0_10LogArgTypeE13ENS0_11LogMetadataEEENS4_ILS5_9EPKcEENS4_ILS5_1EiEEEEEvDpRKT_E1t S
__ZZN3rtc19webrtc_logging_impl11LogStreamerIJEE4CallIJNS0_3ValILNS0_10LogArgTypeE13ENS0_11LogMetadataEEENS4_ILS5_9EPKcEENS4_ILS5_1EiEESA_EEEvDpRKT_E1t S
__ZZN3rtc19webrtc_logging_impl11LogStreamerIJEE4CallIJNS0_3ValILNS0_10LogArgTypeE13ENS0_11LogMetadataEEENS4_ILS5_9EPKcEENS4_ILS5_1EiEESA_NS4_ILS5_5EmEESA_SC_EEEvDpRKT_E1t S
__ZZN3rtc19webrtc_logging_impl11LogStreamerIJEE4CallIJNS0_3ValILNS0_10LogArgTypeE13ENS0_11LogMetadataEEENS4_ILS5_9EPKcEENS4_ILS5_1EiEESA_SA_SA_EEEvDpRKT_E1t S
__ZZN3rtc19webrtc_logging_impl11LogStreamerIJEE4CallIJNS0_3ValILNS0_10LogArgTypeE13ENS0_11LogMetadataEEENS4_ILS5_9EPKcEENS4_ILS5_1EiEESA_SB_EEEvDpRKT_E1t S
__ZZN3rtc19webrtc_logging_impl11LogStreamerIJEE4CallIJNS0_3ValILNS0_10LogArgTypeE13ENS0_11LogMetadataEEENS4_ILS5_9EPKcEENS4_ILS5_1EiEESA_SB_SA_SB_SA_SB_SA_SB_EEEvDpRKT_E1t S
__ZZN3rtc19webrtc_logging_impl11LogStreamerIJEE4CallIJNS0_3ValILNS0_10LogArgTypeE13ENS0_11LogMetadataEEENS4_ILS5_9EPKcEENS4_ILS5_3ExEEEEEvDpRKT_E1t S
__ZZN3rtc19webrtc_logging_impl11LogStreamerIJEE4CallIJNS0_3ValILNS0_10LogArgTypeE13ENS0_11LogMetadataEEENS4_ILS5_9EPKcEENS4_ILS5_3ExEESA_NS4_ILS5_1EiEESA_EEEvDpRKT_E1t S
__ZZN3rtc19webrtc_logging_impl11LogStreamerIJEE4CallIJNS0_3ValILNS0_10LogArgTypeE13ENS0_11LogMetadataEEENS4_ILS5_9EPKcEENS4_ILS5_5EmEEEEEvDpRKT_E1t S
__ZZN3rtc19webrtc_logging_impl11LogStreamerIJEE4CallIJNS0_3ValILNS0_10LogArgTypeE13ENS0_11LogMetadataEEENS4_ILS5_9EPKcEENS4_ILS5_5EmEESA_NS4_ILS5_1EiEESA_SC_SA_EEEvDpRKT_E1t S
__ZZN3rtc19webrtc_logging_impl11LogStreamerIJEE4CallIJNS0_3ValILNS0_10LogArgTypeE13ENS0_11LogMetadataEEENS4_ILS5_9EPKcEENS4_ILS5_5EmEESA_SB_EEEvDpRKT_E1t S
__ZZN3rtc19webrtc_logging_impl11LogStreamerIJEE4CallIJNS0_3ValILNS0_10LogArgTypeE13ENS0_11LogMetadataEEENS4_ILS5_9EPKcEESA_EEEvDpRKT_E1t S
__ZZN3rtc19webrtc_logging_impl11LogStreamerIJEE4CallIJNS0_3ValILNS0_10LogArgTypeE13ENS0_11LogMetadataEEENS4_ILS5_9EPKcEESA_NS4_ILS5_1EiEEEEEvDpRKT_E1t S
__ZZN3rtc19webrtc_logging_impl11LogStreamerIJEE4CallIJNS0_3ValILNS0_10LogArgTypeE13ENS0_11LogMetadataEEENS4_ILS5_9EPKcEESA_NS4_ILS5_5EmEESA_SB_SA_SB_SA_SB_EEEvDpRKT_E1t S
__ZZN3rtc19webrtc_logging_impl11LogStreamerIJEE4CallIJNS0_3ValILNS0_10LogArgTypeE13ENS0_11LogMetadataEEENS4_ILS5_9EPKcEESA_NS4_ILS5_7EdEESA_SB_SA_SB_SA_SB_EEEvDpRKT_E1t S
__ZZN3rtc19webrtc_logging_impl11LogStreamerIJEE4CallIJNS0_3ValILNS0_10LogArgTypeE13ENS0_11LogMetadataEEENS4_ILS5_9EPKcEESA_SA_EEEvDpRKT_E1t S
__ZZN3rtc19webrtc_logging_impl11LogStreamerIJEE4CallIJNS0_3ValILNS0_10LogArgTypeE13ENS0_11LogMetadataEEENS4_ILS5_9EPKcEESA_SA_NS4_ILS5_7EdEESA_NS4_ILS5_1EiEESA_SB_SA_SB_SA_SB_SA_SB_SA_SB_SA_SB_SA_SB_SA_SB_SA_EEEvDpRKT_E1t S
_cfftf1_ps T
_cffti1_ps T
_pffft_aligned_free T
_pffft_aligned_malloc T
_pffft_cplx_finalize T
_pffft_cplx_preprocess T
_pffft_destroy_setup T
_pffft_new_setup T
_pffft_simd_size T
_pffft_transform T
_pffft_transform_internal T
_pffft_transform_ordered T
_pffft_zconvolve_accumulate T
_pffft_zreorder T
_rtc_FatalMessage T
_validate_pffft_simd T

